ARM GAS  C:\Users\me\AppData\Local\Temp\cceVuljq.s 			page 1


   1              		.cpu cortex-m4
   2              		.eabi_attribute 27, 1
   3              		.eabi_attribute 28, 1
   4              		.eabi_attribute 20, 1
   5              		.eabi_attribute 21, 1
   6              		.eabi_attribute 23, 3
   7              		.eabi_attribute 24, 1
   8              		.eabi_attribute 25, 1
   9              		.eabi_attribute 26, 1
  10              		.eabi_attribute 30, 2
  11              		.eabi_attribute 34, 1
  12              		.eabi_attribute 18, 4
  13              		.file	"process_image.c"
  14              		.text
  15              	.Ltext0:
  16              		.cfi_sections	.debug_frame
  17              		.section	.text.ProcessImage,"ax",%progbits
  18              		.align	1
  19              		.p2align 4,,15
  20              		.syntax unified
  21              		.thumb
  22              		.thumb_func
  23              		.fpu fpv4-sp-d16
  24              		.type	ProcessImage, %function
  25              	ProcessImage:
  26              	.LFB258:
  27              		.file 1 "process_image.c"
  28              		.loc 1 48 0
  29              		.cfi_startproc
  30              		@ args = 0, pretend = 0, frame = 648
  31              		@ frame_needed = 0, uses_anonymous_args = 0
  32              	.LVL0:
  33 0000 70B5     		push	{r4, r5, r6, lr}
  34              		.cfi_def_cfa_offset 16
  35              		.cfi_offset 4, -16
  36              		.cfi_offset 5, -12
  37              		.cfi_offset 6, -8
  38              		.cfi_offset 14, -4
  39              	.LBB60:
  40              	.LBB61:
  41              		.file 2 "../../lib/e-puck2_main-processor/ChibiOS//os/rt/include/chregistry.h"
  42              		.loc 2 135 0
  43 0002 184A     		ldr	r2, .L13
  44              	.LBE61:
  45              	.LBE60:
  46              		.loc 1 48 0
  47 0004 184B     		ldr	r3, .L13+4
  48              	.LBB63:
  49              	.LBB62:
  50              		.loc 2 135 0
  51 0006 9269     		ldr	r2, [r2, #24]
  52 0008 1849     		ldr	r1, .L13+8
  53 000a 9161     		str	r1, [r2, #24]
  54              	.LBE62:
  55              	.LBE63:
  56              		.loc 1 48 0
  57 000c ADF5227D 		sub	sp, sp, #648
ARM GAS  C:\Users\me\AppData\Local\Temp\cceVuljq.s 			page 2


  58              		.cfi_def_cfa_offset 664
  59              		.loc 1 53 0
  60 0010 01AD     		add	r5, sp, #4
  61              		.loc 1 48 0
  62 0012 1B68     		ldr	r3, [r3]
  63 0014 A193     		str	r3, [sp, #644]
  64              		.loc 1 53 0
  65 0016 2846     		mov	r0, r5
  66              	.LVL1:
  67 0018 4FF42072 		mov	r2, #640
  68 001c 0021     		movs	r1, #0
  69 001e FFF7FEFF 		bl	memset
  70              	.LVL2:
  71              	.LBB64:
  72              	.LBB65:
  73              		.file 3 "../../lib/e-puck2_main-processor/ChibiOS//os/rt/include/chbsem.h"
  74              		.loc 3 143 0
  75 0022 134C     		ldr	r4, .L13+12
  76              	.LBE65:
  77              	.LBE64:
  78              		.loc 1 54 0
  79 0024 0126     		movs	r6, #1
  80              	.LVL3:
  81              	.L4:
  82              	.LBB67:
  83              	.LBB66:
  84              		.loc 3 143 0
  85 0026 2046     		mov	r0, r4
  86 0028 FFF7FEFF 		bl	chSemWait
  87              	.LVL4:
  88              	.LBE66:
  89              	.LBE67:
  90              		.loc 1 59 0
  91 002c FFF7FEFF 		bl	dcmi_get_last_image_ptr
  92              	.LVL5:
  93 0030 0022     		movs	r2, #0
  94              	.LVL6:
  95              	.L2:
  96              	.LBB68:
  97              		.loc 1 65 0 discriminator 3
  98 0032 8318     		adds	r3, r0, r2
  99 0034 815C     		ldrb	r1, [r0, r2]	@ zero_extendqisi2
 100 0036 5B78     		ldrb	r3, [r3, #1]	@ zero_extendqisi2
 101 0038 0733     		adds	r3, r3, #7
 102 003a 0B40     		ands	r3, r3, r1
 103 003c C2F34E01 		ubfx	r1, r2, #1, #15
 104 0040 0232     		adds	r2, r2, #2
 105              	.LVL7:
 106 0042 23F01F03 		bic	r3, r3, #31
 107              		.loc 1 62 0 discriminator 3
 108 0046 B2F5A06F 		cmp	r2, #1280
 109              		.loc 1 65 0 discriminator 3
 110 004a 6B54     		strb	r3, [r5, r1]
 111              		.loc 1 62 0 discriminator 3
 112 004c F1D1     		bne	.L2
 113              	.LBE68:
 114              		.loc 1 69 0
ARM GAS  C:\Users\me\AppData\Local\Temp\cceVuljq.s 			page 3


 115 004e 16B9     		cbnz	r6, .L12
 116              	.LVL8:
 117              	.L3:
 118              		.loc 1 74 0
 119 0050 86F00106 		eor	r6, r6, #1
 120              	.LVL9:
 121              		.loc 1 57 0
 122 0054 E7E7     		b	.L4
 123              	.LVL10:
 124              	.L12:
 125              		.loc 1 71 0
 126 0056 4FF42071 		mov	r1, #640
 127 005a 2846     		mov	r0, r5
 128              	.LVL11:
 129 005c FFF7FEFF 		bl	SendUint8ToComputer
 130              	.LVL12:
 131 0060 F6E7     		b	.L3
 132              	.L14:
 133 0062 00BF     		.align	2
 134              	.L13:
 135 0064 00000000 		.word	ch
 136 0068 00000000 		.word	__stack_chk_guard
 137 006c 00000000 		.word	.LANCHOR0
 138 0070 00000000 		.word	.LANCHOR1
 139              		.cfi_endproc
 140              	.LFE258:
 141              		.size	ProcessImage, .-ProcessImage
 142              		.section	.text.chprintf.constprop.0,"ax",%progbits
 143              		.align	1
 144              		.p2align 4,,15
 145              		.syntax unified
 146              		.thumb
 147              		.thumb_func
 148              		.fpu fpv4-sp-d16
 149              		.type	chprintf.constprop.0, %function
 150              	chprintf.constprop.0:
 151              	.LFB262:
 152              		.file 4 "../../lib/e-puck2_main-processor/ChibiOS//os/hal/lib/streams/chprintf.h"
 153              		.loc 4 69 0
 154              		.cfi_startproc
 155              		@ args = 4, pretend = 12, frame = 8
 156              		@ frame_needed = 0, uses_anonymous_args = 1
 157              	.LVL13:
 158 0000 0EB4     		push	{r1, r2, r3}
 159              		.cfi_def_cfa_offset 12
 160              		.cfi_offset 1, -12
 161              		.cfi_offset 2, -8
 162              		.cfi_offset 3, -4
 163 0002 10B5     		push	{r4, lr}
 164              		.cfi_def_cfa_offset 20
 165              		.cfi_offset 4, -20
 166              		.cfi_offset 14, -16
 167 0004 0A4C     		ldr	r4, .L19
 168              		.loc 4 74 0
 169 0006 0B49     		ldr	r1, .L19+4
 170              		.loc 4 69 0
 171 0008 2368     		ldr	r3, [r4]
ARM GAS  C:\Users\me\AppData\Local\Temp\cceVuljq.s 			page 4


 172              		.loc 4 74 0
 173 000a 0B48     		ldr	r0, .L19+8
 174              	.LVL14:
 175              		.loc 4 69 0
 176 000c 83B0     		sub	sp, sp, #12
 177              		.cfi_def_cfa_offset 32
 178              		.loc 4 69 0
 179 000e 0193     		str	r3, [sp, #4]
 180              	.LVL15:
 181              		.loc 4 73 0
 182 0010 06AB     		add	r3, sp, #24
 183              		.loc 4 74 0
 184 0012 1A46     		mov	r2, r3
 185              		.loc 4 73 0
 186 0014 0093     		str	r3, [sp]
 187              		.loc 4 74 0
 188 0016 FFF7FEFF 		bl	chvprintf
 189              	.LVL16:
 190              		.loc 4 78 0
 191 001a 019A     		ldr	r2, [sp, #4]
 192 001c 2368     		ldr	r3, [r4]
 193 001e 9A42     		cmp	r2, r3
 194 0020 04D1     		bne	.L18
 195 0022 03B0     		add	sp, sp, #12
 196              		.cfi_remember_state
 197              		.cfi_def_cfa_offset 20
 198              		@ sp needed
 199 0024 BDE81040 		pop	{r4, lr}
 200              		.cfi_restore 14
 201              		.cfi_restore 4
 202              		.cfi_def_cfa_offset 12
 203 0028 03B0     		add	sp, sp, #12
 204              		.cfi_restore 3
 205              		.cfi_restore 2
 206              		.cfi_restore 1
 207              		.cfi_def_cfa_offset 0
 208 002a 7047     		bx	lr
 209              	.L18:
 210              		.cfi_restore_state
 211 002c FFF7FEFF 		bl	__stack_chk_fail
 212              	.LVL17:
 213              	.L20:
 214              		.align	2
 215              	.L19:
 216 0030 00000000 		.word	__stack_chk_guard
 217 0034 00000000 		.word	.LC0
 218 0038 00000000 		.word	SDU1
 219              		.cfi_endproc
 220              	.LFE262:
 221              		.size	chprintf.constprop.0, .-chprintf.constprop.0
 222              		.section	.text.CaptureImage,"ax",%progbits
 223              		.align	1
 224              		.p2align 4,,15
 225              		.syntax unified
 226              		.thumb
 227              		.thumb_func
 228              		.fpu fpv4-sp-d16
ARM GAS  C:\Users\me\AppData\Local\Temp\cceVuljq.s 			page 5


 229              		.type	CaptureImage, %function
 230              	CaptureImage:
 231              	.LFB257:
 232              		.loc 1 18 0
 233              		.cfi_startproc
 234              		@ args = 0, pretend = 0, frame = 8
 235              		@ frame_needed = 0, uses_anonymous_args = 0
 236              	.LVL18:
 237 0000 2DE9F047 		push	{r4, r5, r6, r7, r8, r9, r10, lr}
 238              		.cfi_def_cfa_offset 32
 239              		.cfi_offset 4, -32
 240              		.cfi_offset 5, -28
 241              		.cfi_offset 6, -24
 242              		.cfi_offset 7, -20
 243              		.cfi_offset 8, -16
 244              		.cfi_offset 9, -12
 245              		.cfi_offset 10, -8
 246              		.cfi_offset 14, -4
 247              	.LBB113:
 248              	.LBB114:
 249              		.loc 2 135 0
 250 0004 404C     		ldr	r4, .L29
 251              	.LBE114:
 252              	.LBE113:
 253              		.loc 1 18 0
 254 0006 414A     		ldr	r2, .L29+4
 255              	.LBB116:
 256              	.LBB115:
 257              		.loc 2 135 0
 258 0008 A369     		ldr	r3, [r4, #24]
 259 000a 4149     		ldr	r1, .L29+8
 260 000c 9961     		str	r1, [r3, #24]
 261              	.LBE115:
 262              	.LBE116:
 263              		.loc 1 18 0
 264 000e 86B0     		sub	sp, sp, #24
 265              		.cfi_def_cfa_offset 56
 266              		.loc 1 26 0
 267 0010 0223     		movs	r3, #2
 268 0012 2025     		movs	r5, #32
 269              		.loc 1 18 0
 270 0014 1668     		ldr	r6, [r2]
 271              		.loc 1 26 0
 272 0016 0093     		str	r3, [sp]
 273 0018 0A22     		movs	r2, #10
 274 001a 4FF42073 		mov	r3, #640
 275 001e 0021     		movs	r1, #0
 276 0020 CDE90155 		strd	r5, r5, [sp, #4]
 277 0024 3020     		movs	r0, #48
 278              	.LVL19:
 279              		.loc 1 18 0
 280 0026 0596     		str	r6, [sp, #20]
 281              		.loc 1 26 0
 282 0028 FFF7FEFF 		bl	po8030_advanced_config
 283              	.LVL20:
 284              		.loc 1 27 0
 285 002c FFF7FEFF 		bl	dcmi_enable_double_buffering
ARM GAS  C:\Users\me\AppData\Local\Temp\cceVuljq.s 			page 6


 286              	.LVL21:
 287              		.loc 1 28 0
 288 0030 0020     		movs	r0, #0
 289 0032 FFF7FEFF 		bl	dcmi_set_capture_mode
 290              	.LVL22:
 291 0036 DFF8E480 		ldr	r8, .L29+20
 292              	.LBB117:
 293              	.LBB118:
 294              	.LBB119:
 295              	.LBB120:
 296              		.file 5 "../../lib/e-puck2_main-processor/ChibiOS//os/rt/include/chsys.h"
 297              		.loc 5 367 0
 298 003a DFF8E490 		ldr	r9, .L29+24
 299              	.LBE120:
 300              	.LBE119:
 301              	.LBE118:
 302              	.LBE117:
 303              		.loc 1 29 0
 304 003e FFF7FEFF 		bl	dcmi_prepare
 305              	.LVL23:
 306              	.LBB140:
 307              	.LBB138:
 308              	.LBB129:
 309              	.LBB127:
 310              	.LBB121:
 311              	.LBB122:
 312              	.LBB123:
 313              		.file 6 "../../lib/e-puck2_main-processor/ChibiOS//os/ext/CMSIS/include/core_cmFunc.h"
 314              		.loc 6 546 0
 315 0042 0026     		movs	r6, #0
 316 0044 34E0     		b	.L26
 317              	.LVL24:
 318              	.L23:
 319              	.LBE123:
 320              	.LBE122:
 321              	.LBE121:
 322              	.LBE127:
 323              	.LBE129:
 324              	.LBE138:
 325              	.LBE140:
 326              	.LBB141:
 327              	.LBB142:
 328              		.loc 3 286 0
 329 0046 FFF7FEFF 		bl	chSchRescheduleS
 330              	.LVL25:
 331              	.LBB143:
 332              	.LBB144:
 333              		.loc 5 360 0
 334 004a FFF7FEFF 		bl	_dbg_check_unlock
 335              	.LVL26:
 336              		.loc 5 361 0
 337 004e FFF7FEFF 		bl	_stats_stop_measure_crit_thd
 338              	.LVL27:
 339              		.loc 5 367 0
 340 0052 2368     		ldr	r3, [r4]
 341 0054 A342     		cmp	r3, r4
 342 0056 07D0     		beq	.L24
ARM GAS  C:\Users\me\AppData\Local\Temp\cceVuljq.s 			page 7


 343 0058 A269     		ldr	r2, [r4, #24]
 344 005a 9B68     		ldr	r3, [r3, #8]
 345 005c 9268     		ldr	r2, [r2, #8]
 346 005e 9A42     		cmp	r2, r3
 347 0060 02D2     		bcs	.L24
 348 0062 4846     		mov	r0, r9
 349 0064 FFF7FEFF 		bl	chSysHalt
 350              	.LVL28:
 351              	.L24:
 352              	.LBB145:
 353              	.LBB146:
 354              	.LBB147:
 355              		.loc 6 546 0
 356              		.syntax unified
 357              	@ 546 "../../lib/e-puck2_main-processor/ChibiOS//os/ext/CMSIS/include/core_cmFunc.h" 1
 358 0068 86F31188 		MSR basepri, r6
 359              	@ 0 "" 2
 360              	.LVL29:
 361              		.thumb
 362              		.syntax unified
 363              	.LBE147:
 364              	.LBE146:
 365              	.LBE145:
 366              	.LBE144:
 367              	.LBE143:
 368              	.LBE142:
 369              	.LBE141:
 370              		.loc 1 41 0
 371 006c 1420     		movs	r0, #20
 372 006e FFF7FEFF 		bl	chThdSleep
 373              	.LVL30:
 374              	.LBB156:
 375              	.LBB157:
 376              	.LBB158:
 377              	.LBB159:
 378              	.LBB160:
 379              	.LBB161:
 380              	.LBB162:
 381              		.loc 6 546 0
 382              		.syntax unified
 383              	@ 546 "../../lib/e-puck2_main-processor/ChibiOS//os/ext/CMSIS/include/core_cmFunc.h" 1
 384 0072 85F31188 		MSR basepri, r5
 385              	@ 0 "" 2
 386              	.LVL31:
 387              		.thumb
 388              		.syntax unified
 389              	.LBE162:
 390              	.LBE161:
 391              	.LBE160:
 392              		.loc 5 349 0
 393 0076 FFF7FEFF 		bl	_stats_start_measure_crit_thd
 394              	.LVL32:
 395              		.loc 5 350 0
 396 007a FFF7FEFF 		bl	_dbg_check_lock
 397              	.LVL33:
 398              	.LBE159:
 399              	.LBE158:
ARM GAS  C:\Users\me\AppData\Local\Temp\cceVuljq.s 			page 8


 400              	.LBB163:
 401              	.LBB164:
 402              		.file 7 "../../lib/e-puck2_main-processor/ChibiOS//os/rt/include/chvt.h"
 403              		.loc 7 231 0
 404 007e D4F828A0 		ldr	r10, [r4, #40]
 405              	.LBE164:
 406              	.LBE163:
 407              	.LBB165:
 408              	.LBB166:
 409              		.loc 5 360 0
 410 0082 FFF7FEFF 		bl	_dbg_check_unlock
 411              	.LVL34:
 412              		.loc 5 361 0
 413 0086 FFF7FEFF 		bl	_stats_stop_measure_crit_thd
 414              	.LVL35:
 415              		.loc 5 367 0
 416 008a 2368     		ldr	r3, [r4]
 417 008c A342     		cmp	r3, r4
 418 008e 07D0     		beq	.L25
 419 0090 A269     		ldr	r2, [r4, #24]
 420 0092 9B68     		ldr	r3, [r3, #8]
 421 0094 9268     		ldr	r2, [r2, #8]
 422 0096 9A42     		cmp	r2, r3
 423 0098 02D2     		bcs	.L25
 424 009a 4846     		mov	r0, r9
 425 009c FFF7FEFF 		bl	chSysHalt
 426              	.LVL36:
 427              	.L25:
 428              	.LBB167:
 429              	.LBB168:
 430              	.LBB169:
 431              		.loc 6 546 0
 432              		.syntax unified
 433              	@ 546 "../../lib/e-puck2_main-processor/ChibiOS//os/ext/CMSIS/include/core_cmFunc.h" 1
 434 00a0 86F31188 		MSR basepri, r6
 435              	@ 0 "" 2
 436              	.LVL37:
 437              		.thumb
 438              		.syntax unified
 439              	.LBE169:
 440              	.LBE168:
 441              	.LBE167:
 442              	.LBE166:
 443              	.LBE165:
 444              	.LBE157:
 445              	.LBE156:
 446              		.loc 1 42 0
 447 00a4 1B49     		ldr	r1, .L29+12
 448 00a6 1C48     		ldr	r0, .L29+16
 449 00a8 AAEB0702 		sub	r2, r10, r7
 450 00ac FFF7FEFF 		bl	chprintf.constprop.0
 451              	.LVL38:
 452              	.L26:
 453              	.LBB170:
 454              	.LBB139:
 455              	.LBB130:
 456              	.LBB131:
ARM GAS  C:\Users\me\AppData\Local\Temp\cceVuljq.s 			page 9


 457              	.LBB132:
 458              	.LBB133:
 459              	.LBB134:
 460              		.loc 6 546 0 discriminator 1
 461              		.syntax unified
 462              	@ 546 "../../lib/e-puck2_main-processor/ChibiOS//os/ext/CMSIS/include/core_cmFunc.h" 1
 463 00b0 85F31188 		MSR basepri, r5
 464              	@ 0 "" 2
 465              	.LVL39:
 466              		.thumb
 467              		.syntax unified
 468              	.LBE134:
 469              	.LBE133:
 470              	.LBE132:
 471              		.loc 5 349 0 discriminator 1
 472 00b4 FFF7FEFF 		bl	_stats_start_measure_crit_thd
 473              	.LVL40:
 474              		.loc 5 350 0 discriminator 1
 475 00b8 FFF7FEFF 		bl	_dbg_check_lock
 476              	.LVL41:
 477              	.LBE131:
 478              	.LBE130:
 479              	.LBB135:
 480              	.LBB136:
 481              		.loc 7 231 0 discriminator 1
 482 00bc A76A     		ldr	r7, [r4, #40]
 483              	.LBE136:
 484              	.LBE135:
 485              	.LBB137:
 486              	.LBB128:
 487              		.loc 5 360 0 discriminator 1
 488 00be FFF7FEFF 		bl	_dbg_check_unlock
 489              	.LVL42:
 490              		.loc 5 361 0 discriminator 1
 491 00c2 FFF7FEFF 		bl	_stats_stop_measure_crit_thd
 492              	.LVL43:
 493              		.loc 5 367 0 discriminator 1
 494 00c6 2368     		ldr	r3, [r4]
 495 00c8 A342     		cmp	r3, r4
 496 00ca 07D0     		beq	.L22
 497              		.loc 5 367 0 is_stmt 0
 498 00cc A269     		ldr	r2, [r4, #24]
 499 00ce 9B68     		ldr	r3, [r3, #8]
 500 00d0 9268     		ldr	r2, [r2, #8]
 501 00d2 9A42     		cmp	r2, r3
 502 00d4 02D2     		bcs	.L22
 503 00d6 4846     		mov	r0, r9
 504 00d8 FFF7FEFF 		bl	chSysHalt
 505              	.LVL44:
 506              	.L22:
 507              	.LBB126:
 508              	.LBB125:
 509              	.LBB124:
 510              		.loc 6 546 0 is_stmt 1
 511              		.syntax unified
 512              	@ 546 "../../lib/e-puck2_main-processor/ChibiOS//os/ext/CMSIS/include/core_cmFunc.h" 1
 513 00dc 86F31188 		MSR basepri, r6
ARM GAS  C:\Users\me\AppData\Local\Temp\cceVuljq.s 			page 10


 514              	@ 0 "" 2
 515              	.LVL45:
 516              		.thumb
 517              		.syntax unified
 518              	.LBE124:
 519              	.LBE125:
 520              	.LBE126:
 521              	.LBE128:
 522              	.LBE137:
 523              	.LBE139:
 524              	.LBE170:
 525              		.loc 1 36 0
 526 00e0 FFF7FEFF 		bl	dcmi_capture_start
 527              	.LVL46:
 528              		.loc 1 38 0
 529 00e4 FFF7FEFF 		bl	wait_image_ready
 530              	.LVL47:
 531              	.LBB171:
 532              	.LBB155:
 533              	.LBB148:
 534              	.LBB149:
 535              	.LBB150:
 536              	.LBB151:
 537              	.LBB152:
 538              		.loc 6 546 0
 539              		.syntax unified
 540              	@ 546 "../../lib/e-puck2_main-processor/ChibiOS//os/ext/CMSIS/include/core_cmFunc.h" 1
 541 00e8 85F31188 		MSR basepri, r5
 542              	@ 0 "" 2
 543              	.LVL48:
 544              		.thumb
 545              		.syntax unified
 546              	.LBE152:
 547              	.LBE151:
 548              	.LBE150:
 549              		.loc 5 349 0
 550 00ec FFF7FEFF 		bl	_stats_start_measure_crit_thd
 551              	.LVL49:
 552              		.loc 5 350 0
 553 00f0 FFF7FEFF 		bl	_dbg_check_lock
 554              	.LVL50:
 555              	.LBE149:
 556              	.LBE148:
 557              	.LBB153:
 558              	.LBB154:
 559              		.loc 3 268 0
 560 00f4 FFF7FEFF 		bl	chDbgCheckClassI
 561              	.LVL51:
 562              		.loc 3 270 0
 563 00f8 D8F80830 		ldr	r3, [r8, #8]
 564 00fc 002B     		cmp	r3, #0
 565 00fe A2DC     		bgt	.L23
 566              		.loc 3 271 0
 567 0100 0648     		ldr	r0, .L29+20
 568 0102 FFF7FEFF 		bl	chSemSignalI
 569              	.LVL52:
 570 0106 9EE7     		b	.L23
ARM GAS  C:\Users\me\AppData\Local\Temp\cceVuljq.s 			page 11


 571              	.L30:
 572              		.align	2
 573              	.L29:
 574 0108 00000000 		.word	ch
 575 010c 00000000 		.word	__stack_chk_guard
 576 0110 00000000 		.word	.LANCHOR2
 577 0114 00000000 		.word	.LC0
 578 0118 00000000 		.word	SDU1
 579 011c 00000000 		.word	.LANCHOR1
 580 0120 00000000 		.word	.LANCHOR3
 581              	.LBE154:
 582              	.LBE153:
 583              	.LBE155:
 584              	.LBE171:
 585              		.cfi_endproc
 586              	.LFE257:
 587              		.size	CaptureImage, .-CaptureImage
 588              		.section	.text.get_distance_cm,"ax",%progbits
 589              		.align	1
 590              		.p2align 4,,15
 591              		.global	get_distance_cm
 592              		.syntax unified
 593              		.thumb
 594              		.thumb_func
 595              		.fpu fpv4-sp-d16
 596              		.type	get_distance_cm, %function
 597              	get_distance_cm:
 598              	.LFB259:
 599              		.loc 1 79 0
 600              		.cfi_startproc
 601              		@ args = 0, pretend = 0, frame = 8
 602              		@ frame_needed = 0, uses_anonymous_args = 0
 603 0000 00B5     		push	{lr}
 604              		.cfi_def_cfa_offset 4
 605              		.cfi_offset 14, -4
 606 0002 074B     		ldr	r3, .L35
 607 0004 83B0     		sub	sp, sp, #12
 608              		.cfi_def_cfa_offset 16
 609              		.loc 1 79 0
 610 0006 1A68     		ldr	r2, [r3]
 611 0008 0192     		str	r2, [sp, #4]
 612              		.loc 1 81 0
 613 000a 019A     		ldr	r2, [sp, #4]
 614 000c 1B68     		ldr	r3, [r3]
 615 000e 9A42     		cmp	r2, r3
 616 0010 04D1     		bne	.L34
 617 0012 9FED040A 		vldr.32	s0, .L35+4
 618 0016 03B0     		add	sp, sp, #12
 619              		.cfi_remember_state
 620              		.cfi_def_cfa_offset 4
 621              		@ sp needed
 622 0018 5DF804FB 		ldr	pc, [sp], #4
 623              	.L34:
 624              		.cfi_restore_state
 625 001c FFF7FEFF 		bl	__stack_chk_fail
 626              	.LVL53:
 627              	.L36:
ARM GAS  C:\Users\me\AppData\Local\Temp\cceVuljq.s 			page 12


 628              		.align	2
 629              	.L35:
 630 0020 00000000 		.word	__stack_chk_guard
 631 0024 00000000 		.word	0
 632              		.cfi_endproc
 633              	.LFE259:
 634              		.size	get_distance_cm, .-get_distance_cm
 635              		.section	.text.process_image_start,"ax",%progbits
 636              		.align	1
 637              		.p2align 4,,15
 638              		.global	process_image_start
 639              		.syntax unified
 640              		.thumb
 641              		.thumb_func
 642              		.fpu fpv4-sp-d16
 643              		.type	process_image_start, %function
 644              	process_image_start:
 645              	.LFB260:
 646              		.loc 1 83 0
 647              		.cfi_startproc
 648              		@ args = 0, pretend = 0, frame = 8
 649              		@ frame_needed = 0, uses_anonymous_args = 0
 650 0000 30B5     		push	{r4, r5, lr}
 651              		.cfi_def_cfa_offset 12
 652              		.cfi_offset 4, -12
 653              		.cfi_offset 5, -8
 654              		.cfi_offset 14, -4
 655 0002 0E4C     		ldr	r4, .L41
 656              		.loc 1 84 0
 657 0004 0E4B     		ldr	r3, .L41+4
 658              		.loc 1 83 0
 659 0006 2268     		ldr	r2, [r4]
 660              		.loc 1 84 0
 661 0008 0E48     		ldr	r0, .L41+8
 662              		.loc 1 83 0
 663 000a 85B0     		sub	sp, sp, #20
 664              		.cfi_def_cfa_offset 32
 665              		.loc 1 84 0
 666 000c 0025     		movs	r5, #0
 667              		.loc 1 83 0
 668 000e 0392     		str	r2, [sp, #12]
 669              		.loc 1 84 0
 670 0010 4FF4AF61 		mov	r1, #1400
 671 0014 4022     		movs	r2, #64
 672 0016 0095     		str	r5, [sp]
 673 0018 FFF7FEFF 		bl	chThdCreateStatic
 674              	.LVL54:
 675              		.loc 1 85 0
 676 001c 0A4B     		ldr	r3, .L41+12
 677 001e 0095     		str	r5, [sp]
 678 0020 4022     		movs	r2, #64
 679 0022 0A48     		ldr	r0, .L41+16
 680 0024 4FF41E71 		mov	r1, #632
 681 0028 FFF7FEFF 		bl	chThdCreateStatic
 682              	.LVL55:
 683              		.loc 1 86 0
 684 002c 039A     		ldr	r2, [sp, #12]
ARM GAS  C:\Users\me\AppData\Local\Temp\cceVuljq.s 			page 13


 685 002e 2368     		ldr	r3, [r4]
 686 0030 9A42     		cmp	r2, r3
 687 0032 01D1     		bne	.L40
 688 0034 05B0     		add	sp, sp, #20
 689              		.cfi_remember_state
 690              		.cfi_def_cfa_offset 12
 691              		@ sp needed
 692 0036 30BD     		pop	{r4, r5, pc}
 693              	.L40:
 694              		.cfi_restore_state
 695 0038 FFF7FEFF 		bl	__stack_chk_fail
 696              	.LVL56:
 697              	.L42:
 698              		.align	2
 699              	.L41:
 700 003c 00000000 		.word	__stack_chk_guard
 701 0040 00000000 		.word	ProcessImage
 702 0044 00000000 		.word	.LANCHOR4
 703 0048 00000000 		.word	CaptureImage
 704 004c 00000000 		.word	.LANCHOR5
 705              		.cfi_endproc
 706              	.LFE260:
 707              		.size	process_image_start, .-process_image_start
 708              		.section	.bss.waCaptureImage,"aw",%nobits
 709              		.align	3
 710              		.set	.LANCHOR5,. + 0
 711              		.type	waCaptureImage, %object
 712              		.size	waCaptureImage, 632
 713              	waCaptureImage:
 714 0000 00000000 		.space	632
 714      00000000 
 714      00000000 
 714      00000000 
 714      00000000 
 715              		.section	.bss.waProcessImage,"aw",%nobits
 716              		.align	3
 717              		.set	.LANCHOR4,. + 0
 718              		.type	waProcessImage, %object
 719              		.size	waProcessImage, 1400
 720              	waProcessImage:
 721 0000 00000000 		.space	1400
 721      00000000 
 721      00000000 
 721      00000000 
 721      00000000 
 722              		.section	.data.image_ready_sem,"aw",%progbits
 723              		.align	2
 724              		.set	.LANCHOR1,. + 0
 725              		.type	image_ready_sem, %object
 726              		.size	image_ready_sem, 12
 727              	image_ready_sem:
 728 0000 00000000 		.word	image_ready_sem
 729 0004 00000000 		.word	image_ready_sem
 730 0008 00000000 		.word	0
 731              		.section	.rodata.__FUNCTION__.11329,"a",%progbits
 732              		.align	2
 733              		.set	.LANCHOR2,. + 0
ARM GAS  C:\Users\me\AppData\Local\Temp\cceVuljq.s 			page 14


 734              		.type	__FUNCTION__.11329, %object
 735              		.size	__FUNCTION__.11329, 13
 736              	__FUNCTION__.11329:
 737 0000 43617074 		.ascii	"CaptureImage\000"
 737      75726549 
 737      6D616765 
 737      00
 738              		.section	.rodata.__FUNCTION__.11336,"a",%progbits
 739              		.align	2
 740              		.set	.LANCHOR0,. + 0
 741              		.type	__FUNCTION__.11336, %object
 742              		.size	__FUNCTION__.11336, 13
 743              	__FUNCTION__.11336:
 744 0000 50726F63 		.ascii	"ProcessImage\000"
 744      65737349 
 744      6D616765 
 744      00
 745              		.section	.rodata.__func__.7153,"a",%progbits
 746              		.align	2
 747              		.set	.LANCHOR3,. + 0
 748              		.type	__func__.7153, %object
 749              		.size	__func__.7153, 12
 750              	__func__.7153:
 751 0000 63685379 		.ascii	"chSysUnlock\000"
 751      73556E6C 
 751      6F636B00 
 752              		.section	.rodata.chprintf.constprop.0.str1.4,"aMS",%progbits,1
 753              		.align	2
 754              	.LC0:
 755 0000 63617074 		.ascii	"capture time = %d\012\000"
 755      75726520 
 755      74696D65 
 755      203D2025 
 755      640A00
 756              		.text
 757              	.Letext0:
 758              		.file 8 "c:\\eclipse_e-puck2\\tools\\gcc-arm-none-eabi-7-2017-q4-major-win32\\lib\\gcc\\arm-none-e
 759              		.file 9 "c:\\eclipse_e-puck2\\tools\\gcc-arm-none-eabi-7-2017-q4-major-win32\\arm-none-eabi\\inclu
 760              		.file 10 "c:\\eclipse_e-puck2\\tools\\gcc-arm-none-eabi-7-2017-q4-major-win32\\arm-none-eabi\\incl
 761              		.file 11 "../../lib/e-puck2_main-processor/ChibiOS//os/rt/ports/ARMCMx/compilers/GCC/chtypes.h"
 762              		.file 12 "../../lib/e-puck2_main-processor/ChibiOS//os/rt/include/chsystypes.h"
 763              		.file 13 "../../lib/e-puck2_main-processor/ChibiOS//os/rt/include/chschd.h"
 764              		.file 14 "../../lib/e-puck2_main-processor/ChibiOS//os/ext/CMSIS/include/core_cm4.h"
 765              		.file 15 "../../lib/e-puck2_main-processor/ChibiOS//os/ext/CMSIS/ST/system_stm32f4xx.h"
 766              		.file 16 "../../lib/e-puck2_main-processor/ChibiOS//os/ext/CMSIS/ST/stm32f407xx.h"
 767              		.file 17 "../../lib/e-puck2_main-processor/ChibiOS//os/rt/ports/ARMCMx/chcore.h"
 768              		.file 18 "../../lib/e-puck2_main-processor/ChibiOS//os/rt/ports/ARMCMx/chcore_v7m.h"
 769              		.file 19 "../../lib/e-puck2_main-processor/ChibiOS//os/rt/include/chdebug.h"
 770              		.file 20 "../../lib/e-puck2_main-processor/ChibiOS//os/rt/include/chtm.h"
 771              		.file 21 "../../lib/e-puck2_main-processor/ChibiOS//os/rt/include/chstats.h"
 772              		.file 22 "../../lib/e-puck2_main-processor/ChibiOS//os/rt/include/chsem.h"
 773              		.file 23 "../../lib/e-puck2_main-processor/ChibiOS//os/rt/include/chmtx.h"
 774              		.file 24 "../../lib/e-puck2_main-processor/ChibiOS//os/rt/include/chevents.h"
 775              		.file 25 "../../lib/e-puck2_main-processor/ChibiOS//os/rt/include/chqueues.h"
 776              		.file 26 "../../lib/e-puck2_main-processor/ChibiOS//os/rt/include/chstreams.h"
 777              		.file 27 "../../lib/e-puck2_main-processor/ChibiOS//os/hal/ports/STM32/STM32F4xx/stm32_dma.h"
 778              		.file 28 "../../lib/e-puck2_main-processor/ChibiOS//os/hal/include/hal_ioblock.h"
ARM GAS  C:\Users\me\AppData\Local\Temp\cceVuljq.s 			page 15


 779              		.file 29 "../../lib/e-puck2_main-processor/ChibiOS//os/hal/ports/STM32/LLD/GPIOv2/pal_lld.h"
 780              		.file 30 "../../lib/e-puck2_main-processor/ChibiOS//os/hal/include/adc.h"
 781              		.file 31 "../../lib/e-puck2_main-processor/ChibiOS//os/hal/ports/STM32/STM32F4xx/adc_lld.h"
 782              		.file 32 "../../lib/e-puck2_main-processor/ChibiOS//os/hal/include/can.h"
 783              		.file 33 "../../lib/e-puck2_main-processor/ChibiOS//os/hal/ports/STM32/LLD/can_lld.h"
 784              		.file 34 "../../lib/e-puck2_main-processor/ChibiOS//os/hal/include/dac.h"
 785              		.file 35 "../../lib/e-puck2_main-processor/ChibiOS//os/hal/ports/STM32/LLD/DACv1/dac_lld.h"
 786              		.file 36 "../../lib/e-puck2_main-processor/ChibiOS//os/hal/include/ext.h"
 787              		.file 37 "../../lib/e-puck2_main-processor/ChibiOS//os/hal/ports/STM32/LLD/ext_lld.h"
 788              		.file 38 "../../lib/e-puck2_main-processor/ChibiOS//os/hal/include/gpt.h"
 789              		.file 39 "../../lib/e-puck2_main-processor/ChibiOS//os/hal/ports/STM32/LLD/TIMv1/gpt_lld.h"
 790              		.file 40 "../../lib/e-puck2_main-processor/ChibiOS//os/hal/ports/STM32/LLD/TIMv1/stm32_tim.h"
 791              		.file 41 "../../lib/e-puck2_main-processor/ChibiOS//os/hal/include/i2c.h"
 792              		.file 42 "../../lib/e-puck2_main-processor/ChibiOS//os/hal/ports/STM32/LLD/I2Cv1/i2c_lld.h"
 793              		.file 43 "../../lib/e-puck2_main-processor/ChibiOS//os/hal/include/i2s.h"
 794              		.file 44 "../../lib/e-puck2_main-processor/ChibiOS//os/hal/ports/STM32/LLD/SPIv1/i2s_lld.h"
 795              		.file 45 "../../lib/e-puck2_main-processor/ChibiOS//os/hal/include/pwm.h"
 796              		.file 46 "../../lib/e-puck2_main-processor/ChibiOS//os/hal/ports/STM32/LLD/TIMv1/pwm_lld.h"
 797              		.file 47 "../../lib/e-puck2_main-processor/ChibiOS//os/hal/include/serial.h"
 798              		.file 48 "../../lib/e-puck2_main-processor/ChibiOS//os/hal/ports/STM32/LLD/USARTv1/serial_lld.h"
 799              		.file 49 "../../lib/e-puck2_main-processor/ChibiOS//os/hal/include/sdc.h"
 800              		.file 50 "../../lib/e-puck2_main-processor/ChibiOS//os/hal/ports/STM32/LLD/sdc_lld.h"
 801              		.file 51 "../../lib/e-puck2_main-processor/ChibiOS//os/hal/include/spi.h"
 802              		.file 52 "../../lib/e-puck2_main-processor/ChibiOS//os/hal/ports/STM32/LLD/SPIv1/spi_lld.h"
 803              		.file 53 "../../lib/e-puck2_main-processor/ChibiOS//os/hal/include/usb.h"
 804              		.file 54 "../../lib/e-puck2_main-processor/ChibiOS//os/hal/ports/STM32/LLD/OTGv1/usb_lld.h"
 805              		.file 55 "../../lib/e-puck2_main-processor/ChibiOS//os/hal/ports/STM32/LLD/OTGv1/stm32_otg.h"
 806              		.file 56 "../../lib/e-puck2_main-processor/ChibiOS//os/hal/include/serial_usb.h"
 807              		.file 57 "c:\\eclipse_e-puck2\\tools\\gcc-arm-none-eabi-7-2017-q4-major-win32\\lib\\gcc\\arm-none-
 808              		.file 58 "<built-in>"
 809              		.file 59 "../../lib/e-puck2_main-processor/src/usbcfg.h"
 810              		.file 60 "../../lib/e-puck2_main-processor/ChibiOS_ext/os/hal/include/../ports/STM32/STM32F4xx/dcm
 811              		.file 61 "../../lib/e-puck2_main-processor/src/camera/po8030.h"
 812              		.file 62 "../../lib/e-puck2_main-processor/src/camera/dcmi_camera.h"
 813              		.file 63 "c:\\eclipse_e-puck2\\tools\\gcc-arm-none-eabi-7-2017-q4-major-win32\\arm-none-eabi\\incl
 814              		.file 64 "c:\\eclipse_e-puck2\\tools\\gcc-arm-none-eabi-7-2017-q4-major-win32\\arm-none-eabi\\incl
 815              		.file 65 "c:\\eclipse_e-puck2\\tools\\gcc-arm-none-eabi-7-2017-q4-major-win32\\arm-none-eabi\\incl
 816              		.file 66 "../../lib/e-puck2_main-processor/src/msgbus/messagebus.h"
 817              		.file 67 "c:\\eclipse_e-puck2\\tools\\gcc-arm-none-eabi-7-2017-q4-major-win32\\arm-none-eabi\\incl
 818              		.file 68 "c:\\eclipse_e-puck2\\tools\\gcc-arm-none-eabi-7-2017-q4-major-win32\\arm-none-eabi\\incl
 819              		.file 69 "../../lib/e-puck2_main-processor/src/parameter/parameter.h"
 820              		.file 70 "./main.h"
 821              		.file 71 "../../lib/e-puck2_main-processor/ChibiOS//os/rt/include/chthreads.h"