ARM GAS  C:\Users\me\AppData\Local\Temp\ccHjewEQ.s 			page 1


   1              		.cpu cortex-m4
   2              		.eabi_attribute 27, 1
   3              		.eabi_attribute 28, 1
   4              		.eabi_attribute 20, 1
   5              		.eabi_attribute 21, 1
   6              		.eabi_attribute 23, 3
   7              		.eabi_attribute 24, 1
   8              		.eabi_attribute 25, 1
   9              		.eabi_attribute 26, 1
  10              		.eabi_attribute 30, 2
  11              		.eabi_attribute 34, 1
  12              		.eabi_attribute 18, 4
  13              		.file	"process_image.c"
  14              		.text
  15              	.Ltext0:
  16              		.cfi_sections	.debug_frame
  17              		.section	.text.chprintf.constprop.0,"ax",%progbits
  18              		.align	1
  19              		.p2align 4,,15
  20              		.syntax unified
  21              		.thumb
  22              		.thumb_func
  23              		.fpu fpv4-sp-d16
  24              		.type	chprintf.constprop.0, %function
  25              	chprintf.constprop.0:
  26              	.LFB263:
  27              		.file 1 "../../lib/e-puck2_main-processor/ChibiOS//os/hal/lib/streams/chprintf.h"
  28              		.loc 1 69 0
  29              		.cfi_startproc
  30              		@ args = 4, pretend = 12, frame = 8
  31              		@ frame_needed = 0, uses_anonymous_args = 1
  32              	.LVL0:
  33 0000 0EB4     		push	{r1, r2, r3}
  34              		.cfi_def_cfa_offset 12
  35              		.cfi_offset 1, -12
  36              		.cfi_offset 2, -8
  37              		.cfi_offset 3, -4
  38 0002 10B5     		push	{r4, lr}
  39              		.cfi_def_cfa_offset 20
  40              		.cfi_offset 4, -20
  41              		.cfi_offset 14, -16
  42 0004 0A4C     		ldr	r4, .L6
  43              		.loc 1 74 0
  44 0006 0B49     		ldr	r1, .L6+4
  45              		.loc 1 69 0
  46 0008 2368     		ldr	r3, [r4]
  47              		.loc 1 74 0
  48 000a 0B48     		ldr	r0, .L6+8
  49              	.LVL1:
  50              		.loc 1 69 0
  51 000c 83B0     		sub	sp, sp, #12
  52              		.cfi_def_cfa_offset 32
  53              		.loc 1 69 0
  54 000e 0193     		str	r3, [sp, #4]
  55              	.LVL2:
  56              		.loc 1 73 0
  57 0010 06AB     		add	r3, sp, #24
ARM GAS  C:\Users\me\AppData\Local\Temp\ccHjewEQ.s 			page 2


  58              		.loc 1 74 0
  59 0012 1A46     		mov	r2, r3
  60              		.loc 1 73 0
  61 0014 0093     		str	r3, [sp]
  62              		.loc 1 74 0
  63 0016 FFF7FEFF 		bl	chvprintf
  64              	.LVL3:
  65              		.loc 1 78 0
  66 001a 019A     		ldr	r2, [sp, #4]
  67 001c 2368     		ldr	r3, [r4]
  68 001e 9A42     		cmp	r2, r3
  69 0020 04D1     		bne	.L5
  70 0022 03B0     		add	sp, sp, #12
  71              		.cfi_remember_state
  72              		.cfi_def_cfa_offset 20
  73              		@ sp needed
  74 0024 BDE81040 		pop	{r4, lr}
  75              		.cfi_restore 14
  76              		.cfi_restore 4
  77              		.cfi_def_cfa_offset 12
  78 0028 03B0     		add	sp, sp, #12
  79              		.cfi_restore 3
  80              		.cfi_restore 2
  81              		.cfi_restore 1
  82              		.cfi_def_cfa_offset 0
  83 002a 7047     		bx	lr
  84              	.L5:
  85              		.cfi_restore_state
  86 002c FFF7FEFF 		bl	__stack_chk_fail
  87              	.LVL4:
  88              	.L7:
  89              		.align	2
  90              	.L6:
  91 0030 00000000 		.word	__stack_chk_guard
  92 0034 00000000 		.word	.LC0
  93 0038 00000000 		.word	SDU1
  94              		.cfi_endproc
  95              	.LFE263:
  96              		.size	chprintf.constprop.0, .-chprintf.constprop.0
  97              		.section	.text.CaptureImage,"ax",%progbits
  98              		.align	1
  99              		.p2align 4,,15
 100              		.syntax unified
 101              		.thumb
 102              		.thumb_func
 103              		.fpu fpv4-sp-d16
 104              		.type	CaptureImage, %function
 105              	CaptureImage:
 106              	.LFB258:
 107              		.file 2 "process_image.c"
 108              		.loc 2 103 0
 109              		.cfi_startproc
 110              		@ args = 0, pretend = 0, frame = 8
 111              		@ frame_needed = 0, uses_anonymous_args = 0
 112              	.LVL5:
 113 0000 2DE9F047 		push	{r4, r5, r6, r7, r8, r9, r10, lr}
 114              		.cfi_def_cfa_offset 32
ARM GAS  C:\Users\me\AppData\Local\Temp\ccHjewEQ.s 			page 3


 115              		.cfi_offset 4, -32
 116              		.cfi_offset 5, -28
 117              		.cfi_offset 6, -24
 118              		.cfi_offset 7, -20
 119              		.cfi_offset 8, -16
 120              		.cfi_offset 9, -12
 121              		.cfi_offset 10, -8
 122              		.cfi_offset 14, -4
 123              	.LBB104:
 124              	.LBB105:
 125              		.file 3 "../../lib/e-puck2_main-processor/ChibiOS//os/rt/include/chregistry.h"
 126              		.loc 3 135 0
 127 0004 3F4C     		ldr	r4, .L16
 128              	.LBE105:
 129              	.LBE104:
 130              		.loc 2 103 0
 131 0006 404A     		ldr	r2, .L16+4
 132              	.LBB107:
 133              	.LBB106:
 134              		.loc 3 135 0
 135 0008 A369     		ldr	r3, [r4, #24]
 136 000a 4049     		ldr	r1, .L16+8
 137 000c 9961     		str	r1, [r3, #24]
 138              	.LBE106:
 139              	.LBE107:
 140              		.loc 2 103 0
 141 000e 86B0     		sub	sp, sp, #24
 142              		.cfi_def_cfa_offset 56
 143              		.loc 2 111 0
 144 0010 0223     		movs	r3, #2
 145 0012 2025     		movs	r5, #32
 146              		.loc 2 103 0
 147 0014 1668     		ldr	r6, [r2]
 148              		.loc 2 111 0
 149 0016 0093     		str	r3, [sp]
 150 0018 0A22     		movs	r2, #10
 151 001a 4FF42073 		mov	r3, #640
 152 001e 0021     		movs	r1, #0
 153 0020 CDE90155 		strd	r5, r5, [sp, #4]
 154 0024 3020     		movs	r0, #48
 155              	.LVL6:
 156              		.loc 2 103 0
 157 0026 0596     		str	r6, [sp, #20]
 158              		.loc 2 111 0
 159 0028 FFF7FEFF 		bl	po8030_advanced_config
 160              	.LVL7:
 161              		.loc 2 112 0
 162 002c FFF7FEFF 		bl	dcmi_enable_double_buffering
 163              	.LVL8:
 164              		.loc 2 113 0
 165 0030 0020     		movs	r0, #0
 166 0032 FFF7FEFF 		bl	dcmi_set_capture_mode
 167              	.LVL9:
 168 0036 DFF8E080 		ldr	r8, .L16+20
 169              	.LBB108:
 170              	.LBB109:
 171              	.LBB110:
ARM GAS  C:\Users\me\AppData\Local\Temp\ccHjewEQ.s 			page 4


 172              	.LBB111:
 173              		.file 4 "../../lib/e-puck2_main-processor/ChibiOS//os/rt/include/chsys.h"
 174              		.loc 4 367 0
 175 003a DFF8E090 		ldr	r9, .L16+24
 176              	.LBE111:
 177              	.LBE110:
 178              	.LBE109:
 179              	.LBE108:
 180              		.loc 2 114 0
 181 003e FFF7FEFF 		bl	dcmi_prepare
 182              	.LVL10:
 183              	.LBB131:
 184              	.LBB129:
 185              	.LBB120:
 186              	.LBB118:
 187              	.LBB112:
 188              	.LBB113:
 189              	.LBB114:
 190              		.file 5 "../../lib/e-puck2_main-processor/ChibiOS//os/ext/CMSIS/include/core_cmFunc.h"
 191              		.loc 5 546 0
 192 0042 0026     		movs	r6, #0
 193 0044 31E0     		b	.L13
 194              	.LVL11:
 195              	.L10:
 196              	.LBE114:
 197              	.LBE113:
 198              	.LBE112:
 199              	.LBE118:
 200              	.LBE120:
 201              	.LBE129:
 202              	.LBE131:
 203              	.LBB132:
 204              	.LBB133:
 205              		.file 6 "../../lib/e-puck2_main-processor/ChibiOS//os/rt/include/chbsem.h"
 206              		.loc 6 286 0
 207 0046 FFF7FEFF 		bl	chSchRescheduleS
 208              	.LVL12:
 209              	.LBB134:
 210              	.LBB135:
 211              		.loc 4 360 0
 212 004a FFF7FEFF 		bl	_dbg_check_unlock
 213              	.LVL13:
 214              		.loc 4 361 0
 215 004e FFF7FEFF 		bl	_stats_stop_measure_crit_thd
 216              	.LVL14:
 217              		.loc 4 367 0
 218 0052 2368     		ldr	r3, [r4]
 219 0054 A342     		cmp	r3, r4
 220 0056 07D0     		beq	.L11
 221 0058 A269     		ldr	r2, [r4, #24]
 222 005a 9B68     		ldr	r3, [r3, #8]
 223 005c 9268     		ldr	r2, [r2, #8]
 224 005e 9A42     		cmp	r2, r3
 225 0060 02D2     		bcs	.L11
 226 0062 4846     		mov	r0, r9
 227 0064 FFF7FEFF 		bl	chSysHalt
 228              	.LVL15:
ARM GAS  C:\Users\me\AppData\Local\Temp\ccHjewEQ.s 			page 5


 229              	.L11:
 230              	.LBB136:
 231              	.LBB137:
 232              	.LBB138:
 233              		.loc 5 546 0
 234              		.syntax unified
 235              	@ 546 "../../lib/e-puck2_main-processor/ChibiOS//os/ext/CMSIS/include/core_cmFunc.h" 1
 236 0068 86F31188 		MSR basepri, r6
 237              	@ 0 "" 2
 238              	.LVL16:
 239              		.thumb
 240              		.syntax unified
 241              	.LBE138:
 242              	.LBE137:
 243              	.LBE136:
 244              	.LBE135:
 245              	.LBE134:
 246              	.LBE133:
 247              	.LBE132:
 248              	.LBB147:
 249              	.LBB148:
 250              	.LBB149:
 251              	.LBB150:
 252              	.LBB151:
 253              	.LBB152:
 254              	.LBB153:
 255              		.syntax unified
 256              	@ 546 "../../lib/e-puck2_main-processor/ChibiOS//os/ext/CMSIS/include/core_cmFunc.h" 1
 257 006c 85F31188 		MSR basepri, r5
 258              	@ 0 "" 2
 259              	.LVL17:
 260              		.thumb
 261              		.syntax unified
 262              	.LBE153:
 263              	.LBE152:
 264              	.LBE151:
 265              		.loc 4 349 0
 266 0070 FFF7FEFF 		bl	_stats_start_measure_crit_thd
 267              	.LVL18:
 268              		.loc 4 350 0
 269 0074 FFF7FEFF 		bl	_dbg_check_lock
 270              	.LVL19:
 271              	.LBE150:
 272              	.LBE149:
 273              	.LBB154:
 274              	.LBB155:
 275              		.file 7 "../../lib/e-puck2_main-processor/ChibiOS//os/rt/include/chvt.h"
 276              		.loc 7 231 0
 277 0078 D4F828A0 		ldr	r10, [r4, #40]
 278              	.LBE155:
 279              	.LBE154:
 280              	.LBB156:
 281              	.LBB157:
 282              		.loc 4 360 0
 283 007c FFF7FEFF 		bl	_dbg_check_unlock
 284              	.LVL20:
 285              		.loc 4 361 0
ARM GAS  C:\Users\me\AppData\Local\Temp\ccHjewEQ.s 			page 6


 286 0080 FFF7FEFF 		bl	_stats_stop_measure_crit_thd
 287              	.LVL21:
 288              		.loc 4 367 0
 289 0084 2368     		ldr	r3, [r4]
 290 0086 A342     		cmp	r3, r4
 291 0088 07D0     		beq	.L12
 292 008a A269     		ldr	r2, [r4, #24]
 293 008c 9B68     		ldr	r3, [r3, #8]
 294 008e 9268     		ldr	r2, [r2, #8]
 295 0090 9A42     		cmp	r2, r3
 296 0092 02D2     		bcs	.L12
 297 0094 4846     		mov	r0, r9
 298 0096 FFF7FEFF 		bl	chSysHalt
 299              	.LVL22:
 300              	.L12:
 301              	.LBB158:
 302              	.LBB159:
 303              	.LBB160:
 304              		.loc 5 546 0
 305              		.syntax unified
 306              	@ 546 "../../lib/e-puck2_main-processor/ChibiOS//os/ext/CMSIS/include/core_cmFunc.h" 1
 307 009a 86F31188 		MSR basepri, r6
 308              	@ 0 "" 2
 309              	.LVL23:
 310              		.thumb
 311              		.syntax unified
 312              	.LBE160:
 313              	.LBE159:
 314              	.LBE158:
 315              	.LBE157:
 316              	.LBE156:
 317              	.LBE148:
 318              	.LBE147:
 319              		.loc 2 127 0
 320 009e 1C49     		ldr	r1, .L16+12
 321 00a0 1C48     		ldr	r0, .L16+16
 322 00a2 AAEB0702 		sub	r2, r10, r7
 323 00a6 FFF7FEFF 		bl	chprintf.constprop.0
 324              	.LVL24:
 325              	.L13:
 326              	.LBB161:
 327              	.LBB130:
 328              	.LBB121:
 329              	.LBB122:
 330              	.LBB123:
 331              	.LBB124:
 332              	.LBB125:
 333              		.loc 5 546 0 discriminator 1
 334              		.syntax unified
 335              	@ 546 "../../lib/e-puck2_main-processor/ChibiOS//os/ext/CMSIS/include/core_cmFunc.h" 1
 336 00aa 85F31188 		MSR basepri, r5
 337              	@ 0 "" 2
 338              	.LVL25:
 339              		.thumb
 340              		.syntax unified
 341              	.LBE125:
 342              	.LBE124:
ARM GAS  C:\Users\me\AppData\Local\Temp\ccHjewEQ.s 			page 7


 343              	.LBE123:
 344              		.loc 4 349 0 discriminator 1
 345 00ae FFF7FEFF 		bl	_stats_start_measure_crit_thd
 346              	.LVL26:
 347              		.loc 4 350 0 discriminator 1
 348 00b2 FFF7FEFF 		bl	_dbg_check_lock
 349              	.LVL27:
 350              	.LBE122:
 351              	.LBE121:
 352              	.LBB126:
 353              	.LBB127:
 354              		.loc 7 231 0 discriminator 1
 355 00b6 A76A     		ldr	r7, [r4, #40]
 356              	.LBE127:
 357              	.LBE126:
 358              	.LBB128:
 359              	.LBB119:
 360              		.loc 4 360 0 discriminator 1
 361 00b8 FFF7FEFF 		bl	_dbg_check_unlock
 362              	.LVL28:
 363              		.loc 4 361 0 discriminator 1
 364 00bc FFF7FEFF 		bl	_stats_stop_measure_crit_thd
 365              	.LVL29:
 366              		.loc 4 367 0 discriminator 1
 367 00c0 2368     		ldr	r3, [r4]
 368 00c2 A342     		cmp	r3, r4
 369 00c4 07D0     		beq	.L9
 370              		.loc 4 367 0 is_stmt 0
 371 00c6 A269     		ldr	r2, [r4, #24]
 372 00c8 9B68     		ldr	r3, [r3, #8]
 373 00ca 9268     		ldr	r2, [r2, #8]
 374 00cc 9A42     		cmp	r2, r3
 375 00ce 02D2     		bcs	.L9
 376 00d0 4846     		mov	r0, r9
 377 00d2 FFF7FEFF 		bl	chSysHalt
 378              	.LVL30:
 379              	.L9:
 380              	.LBB117:
 381              	.LBB116:
 382              	.LBB115:
 383              		.loc 5 546 0 is_stmt 1
 384              		.syntax unified
 385              	@ 546 "../../lib/e-puck2_main-processor/ChibiOS//os/ext/CMSIS/include/core_cmFunc.h" 1
 386 00d6 86F31188 		MSR basepri, r6
 387              	@ 0 "" 2
 388              	.LVL31:
 389              		.thumb
 390              		.syntax unified
 391              	.LBE115:
 392              	.LBE116:
 393              	.LBE117:
 394              	.LBE119:
 395              	.LBE128:
 396              	.LBE130:
 397              	.LBE161:
 398              		.loc 2 121 0
 399 00da FFF7FEFF 		bl	dcmi_capture_start
ARM GAS  C:\Users\me\AppData\Local\Temp\ccHjewEQ.s 			page 8


 400              	.LVL32:
 401              		.loc 2 123 0
 402 00de FFF7FEFF 		bl	wait_image_ready
 403              	.LVL33:
 404              	.LBB162:
 405              	.LBB146:
 406              	.LBB139:
 407              	.LBB140:
 408              	.LBB141:
 409              	.LBB142:
 410              	.LBB143:
 411              		.loc 5 546 0
 412              		.syntax unified
 413              	@ 546 "../../lib/e-puck2_main-processor/ChibiOS//os/ext/CMSIS/include/core_cmFunc.h" 1
 414 00e2 85F31188 		MSR basepri, r5
 415              	@ 0 "" 2
 416              	.LVL34:
 417              		.thumb
 418              		.syntax unified
 419              	.LBE143:
 420              	.LBE142:
 421              	.LBE141:
 422              		.loc 4 349 0
 423 00e6 FFF7FEFF 		bl	_stats_start_measure_crit_thd
 424              	.LVL35:
 425              		.loc 4 350 0
 426 00ea FFF7FEFF 		bl	_dbg_check_lock
 427              	.LVL36:
 428              	.LBE140:
 429              	.LBE139:
 430              	.LBB144:
 431              	.LBB145:
 432              		.loc 6 268 0
 433 00ee FFF7FEFF 		bl	chDbgCheckClassI
 434              	.LVL37:
 435              		.loc 6 270 0
 436 00f2 D8F80830 		ldr	r3, [r8, #8]
 437 00f6 002B     		cmp	r3, #0
 438 00f8 A5DC     		bgt	.L10
 439              		.loc 6 271 0
 440 00fa 0748     		ldr	r0, .L16+20
 441 00fc FFF7FEFF 		bl	chSemSignalI
 442              	.LVL38:
 443 0100 A1E7     		b	.L10
 444              	.L17:
 445 0102 00BF     		.align	2
 446              	.L16:
 447 0104 00000000 		.word	ch
 448 0108 00000000 		.word	__stack_chk_guard
 449 010c 00000000 		.word	.LANCHOR0
 450 0110 00000000 		.word	.LC0
 451 0114 00000000 		.word	SDU1
 452 0118 00000000 		.word	.LANCHOR2
 453 011c 00000000 		.word	.LANCHOR1
 454              	.LBE145:
 455              	.LBE144:
 456              	.LBE146:
ARM GAS  C:\Users\me\AppData\Local\Temp\ccHjewEQ.s 			page 9


 457              	.LBE162:
 458              		.cfi_endproc
 459              	.LFE258:
 460              		.size	CaptureImage, .-CaptureImage
 461              		.section	.text.extract_line_width,"ax",%progbits
 462              		.align	1
 463              		.p2align 4,,15
 464              		.global	extract_line_width
 465              		.syntax unified
 466              		.thumb
 467              		.thumb_func
 468              		.fpu fpv4-sp-d16
 469              		.type	extract_line_width, %function
 470              	extract_line_width:
 471              	.LFB257:
 472              		.loc 2 19 0
 473              		.cfi_startproc
 474              		@ args = 0, pretend = 0, frame = 8
 475              		@ frame_needed = 0, uses_anonymous_args = 0
 476              	.LVL39:
 477 0000 F0B5     		push	{r4, r5, r6, r7, lr}
 478              		.cfi_def_cfa_offset 20
 479              		.cfi_offset 4, -20
 480              		.cfi_offset 5, -16
 481              		.cfi_offset 6, -12
 482              		.cfi_offset 7, -8
 483              		.cfi_offset 14, -4
 484 0002 304D     		ldr	r5, .L47
 485 0004 83B0     		sub	sp, sp, #12
 486              		.cfi_def_cfa_offset 32
 487              		.loc 2 19 0
 488 0006 2B68     		ldr	r3, [r5]
 489 0008 0193     		str	r3, [sp, #4]
 490              	.LVL40:
 491 000a 00F27F24 		addw	r4, r0, #639
 492 000e 431E     		subs	r3, r0, #1
 493              		.loc 2 23 0
 494 0010 0022     		movs	r2, #0
 495              	.LVL41:
 496              	.L19:
 497              	.LBB163:
 498              		.loc 2 29 0 discriminator 3
 499 0012 13F8011F 		ldrb	r1, [r3, #1]!	@ zero_extendqisi2
 500              		.loc 2 28 0 discriminator 3
 501 0016 9C42     		cmp	r4, r3
 502              		.loc 2 29 0 discriminator 3
 503 0018 0A44     		add	r2, r2, r1
 504              	.LVL42:
 505              		.loc 2 28 0 discriminator 3
 506 001a FAD1     		bne	.L19
 507              	.LBE163:
 508              		.loc 2 31 0
 509 001c 2A4B     		ldr	r3, .L47+4
 510 001e 0478     		ldrb	r4, [r0]	@ zero_extendqisi2
 511 0020 A3FB0232 		umull	r3, r2, r3, r2
 512              	.LVL43:
 513 0024 520A     		lsrs	r2, r2, #9
ARM GAS  C:\Users\me\AppData\Local\Temp\ccHjewEQ.s 			page 10


 514              	.LVL44:
 515              		.loc 2 21 0
 516 0026 0021     		movs	r1, #0
 517              		.loc 2 36 0
 518 0028 40F27A26 		movw	r6, #634
 519              	.LVL45:
 520              	.L20:
 521 002c 4B1C     		adds	r3, r1, #1
 522              		.loc 2 40 0
 523 002e 9442     		cmp	r4, r2
 524 0030 9BB2     		uxth	r3, r3
 525 0032 1CD9     		bls	.L22
 526              	.L45:
 527              		.loc 2 40 0 is_stmt 0 discriminator 1
 528 0034 4418     		adds	r4, r0, r1
 529 0036 6479     		ldrb	r4, [r4, #5]	@ zero_extendqisi2
 530 0038 9442     		cmp	r4, r2
 531 003a 18D2     		bcs	.L22
 532              	.LVL46:
 533              		.loc 2 48 0 is_stmt 1
 534 003c B342     		cmp	r3, r6
 535 003e 22D8     		bhi	.L21
 536              		.loc 2 48 0 is_stmt 0 discriminator 1
 537 0040 09B3     		cbz	r1, .L21
 538 0042 03F1FF3C 		add	ip, r3, #-1
 539 0046 8444     		add	ip, ip, r0
 540              	.LVL47:
 541              	.L30:
 542              		.loc 2 54 0 is_stmt 1
 543 0048 1CF8014F 		ldrb	r4, [ip, #1]!	@ zero_extendqisi2
 544 004c 9442     		cmp	r4, r2
 545 004e 9FB2     		uxth	r7, r3
 546 0050 12D9     		bls	.L25
 547              		.loc 2 54 0 is_stmt 0 discriminator 1
 548 0052 1CF805EC 		ldrb	lr, [ip, #-5]	@ zero_extendqisi2
 549 0056 9645     		cmp	lr, r2
 550 0058 0ED2     		bcs	.L25
 551              	.LVL48:
 552              		.loc 2 73 0 is_stmt 1
 553 005a 7B1A     		subs	r3, r7, r1
 554 005c 272B     		cmp	r3, #39
 555 005e 2ADC     		bgt	.L44
 556              	.LVL49:
 557              		.loc 2 36 0
 558 0060 B742     		cmp	r7, r6
 559 0062 10D8     		bhi	.L21
 560 0064 3946     		mov	r1, r7
 561 0066 4B1C     		adds	r3, r1, #1
 562              		.loc 2 40 0
 563 0068 9442     		cmp	r4, r2
 564 006a 9BB2     		uxth	r3, r3
 565 006c E2D8     		bhi	.L45
 566              	.LVL50:
 567              	.L22:
 568              		.loc 2 36 0 discriminator 1
 569 006e B342     		cmp	r3, r6
 570 0070 09D8     		bhi	.L21
ARM GAS  C:\Users\me\AppData\Local\Temp\ccHjewEQ.s 			page 11


 571 0072 C45C     		ldrb	r4, [r0, r3]	@ zero_extendqisi2
 572              	.LVL51:
 573              		.loc 2 36 0 is_stmt 0
 574 0074 1946     		mov	r1, r3
 575 0076 D9E7     		b	.L20
 576              	.LVL52:
 577              	.L25:
 578 0078 0137     		adds	r7, r7, #1
 579 007a BFB2     		uxth	r7, r7
 580              	.LVL53:
 581              		.loc 2 52 0 is_stmt 1
 582 007c B7F5207F 		cmp	r7, #640
 583 0080 03F10103 		add	r3, r3, #1
 584 0084 E0D1     		bne	.L30
 585              	.LVL54:
 586              	.L21:
 587              		.loc 2 85 0
 588 0086 114B     		ldr	r3, .L47+8
 589 0088 1888     		ldrh	r0, [r3]
 590              	.LVL55:
 591              	.L33:
 592              		.loc 2 92 0
 593 008a DFED116A 		vldr.32	s13, .L47+12
 594              		.loc 2 97 0
 595 008e 019A     		ldr	r2, [sp, #4]
 596              	.LVL56:
 597 0090 2B68     		ldr	r3, [r5]
 598              		.loc 2 92 0
 599 0092 07EE900A 		vmov	s15, r0	@ int
 600 0096 F8EEE77A 		vcvt.f32.s32	s15, s15
 601 009a 86EEA77A 		vdiv.f32	s14, s13, s15
 602 009e F3EE097A 		vmov.f32	s15, #2.5e+1
 603              		.loc 2 93 0
 604 00a2 B4EE677A 		vcmp.f32	s14, s15
 605 00a6 F1EE10FA 		vmrs	APSR_nzcv, FPSCR
 606              		.loc 2 97 0
 607 00aa C8BF     		it	gt
 608 00ac 3E20     		movgt	r0, #62
 609              	.LVL57:
 610 00ae 9A42     		cmp	r2, r3
 611 00b0 06D1     		bne	.L46
 612 00b2 03B0     		add	sp, sp, #12
 613              		.cfi_remember_state
 614              		.cfi_def_cfa_offset 20
 615              		@ sp needed
 616 00b4 F0BD     		pop	{r4, r5, r6, r7, pc}
 617              	.LVL58:
 618              	.L44:
 619              		.cfi_restore_state
 620              		.loc 2 87 0
 621 00b6 791A     		subs	r1, r7, r1
 622 00b8 044B     		ldr	r3, .L47+8
 623 00ba 88B2     		uxth	r0, r1
 624              	.LVL59:
 625 00bc 1880     		strh	r0, [r3]	@ movhi
 626 00be E4E7     		b	.L33
 627              	.LVL60:
ARM GAS  C:\Users\me\AppData\Local\Temp\ccHjewEQ.s 			page 12


 628              	.L46:
 629              		.loc 2 97 0
 630 00c0 FFF7FEFF 		bl	__stack_chk_fail
 631              	.LVL61:
 632              	.L48:
 633              		.align	2
 634              	.L47:
 635 00c4 00000000 		.word	__stack_chk_guard
 636 00c8 CDCCCCCC 		.word	-858993459
 637 00cc 00000000 		.word	.LANCHOR3
 638 00d0 0040C444 		.word	1153712128
 639              		.cfi_endproc
 640              	.LFE257:
 641              		.size	extract_line_width, .-extract_line_width
 642              		.section	.text.ProcessImage,"ax",%progbits
 643              		.align	1
 644              		.p2align 4,,15
 645              		.syntax unified
 646              		.thumb
 647              		.thumb_func
 648              		.fpu fpv4-sp-d16
 649              		.type	ProcessImage, %function
 650              	ProcessImage:
 651              	.LFB259:
 652              		.loc 2 133 0
 653              		.cfi_startproc
 654              		@ args = 0, pretend = 0, frame = 648
 655              		@ frame_needed = 0, uses_anonymous_args = 0
 656              	.LVL62:
 657 0000 70B5     		push	{r4, r5, r6, lr}
 658              		.cfi_def_cfa_offset 16
 659              		.cfi_offset 4, -16
 660              		.cfi_offset 5, -12
 661              		.cfi_offset 6, -8
 662              		.cfi_offset 14, -4
 663              	.LBB164:
 664              	.LBB165:
 665              		.loc 3 135 0
 666 0002 194A     		ldr	r2, .L60
 667              	.LBE165:
 668              	.LBE164:
 669              		.loc 2 133 0
 670 0004 194B     		ldr	r3, .L60+4
 671              	.LBB167:
 672              	.LBB166:
 673              		.loc 3 135 0
 674 0006 9269     		ldr	r2, [r2, #24]
 675 0008 1949     		ldr	r1, .L60+8
 676 000a 9161     		str	r1, [r2, #24]
 677              	.LBE166:
 678              	.LBE167:
 679              		.loc 2 133 0
 680 000c ADF5227D 		sub	sp, sp, #648
 681              		.cfi_def_cfa_offset 664
 682              		.loc 2 139 0
 683 0010 01AD     		add	r5, sp, #4
 684              		.loc 2 133 0
ARM GAS  C:\Users\me\AppData\Local\Temp\ccHjewEQ.s 			page 13


 685 0012 1B68     		ldr	r3, [r3]
 686 0014 A193     		str	r3, [sp, #644]
 687              	.LVL63:
 688              		.loc 2 139 0
 689 0016 4FF42072 		mov	r2, #640
 690 001a 0021     		movs	r1, #0
 691 001c 2846     		mov	r0, r5
 692              	.LVL64:
 693 001e FFF7FEFF 		bl	memset
 694              	.LVL65:
 695              		.loc 2 141 0
 696 0022 2846     		mov	r0, r5
 697 0024 FFF7FEFF 		bl	extract_line_width
 698              	.LVL66:
 699              	.LBB168:
 700              	.LBB169:
 701              		.loc 6 143 0
 702 0028 124C     		ldr	r4, .L60+12
 703              	.LBE169:
 704              	.LBE168:
 705              		.loc 2 140 0
 706 002a 0126     		movs	r6, #1
 707              	.LVL67:
 708              	.L52:
 709              	.LBB171:
 710              	.LBB170:
 711              		.loc 6 143 0
 712 002c 2046     		mov	r0, r4
 713 002e FFF7FEFF 		bl	chSemWait
 714              	.LVL68:
 715              	.LBE170:
 716              	.LBE171:
 717              		.loc 2 146 0
 718 0032 FFF7FEFF 		bl	dcmi_get_last_image_ptr
 719              	.LVL69:
 720 0036 0022     		movs	r2, #0
 721              	.LVL70:
 722              	.L50:
 723              	.LBB172:
 724              		.loc 2 152 0 discriminator 3
 725 0038 8318     		adds	r3, r0, r2
 726 003a 815C     		ldrb	r1, [r0, r2]	@ zero_extendqisi2
 727 003c 5B78     		ldrb	r3, [r3, #1]	@ zero_extendqisi2
 728 003e 0733     		adds	r3, r3, #7
 729 0040 0B40     		ands	r3, r3, r1
 730 0042 C2F34E01 		ubfx	r1, r2, #1, #15
 731 0046 0232     		adds	r2, r2, #2
 732              	.LVL71:
 733 0048 23F01F03 		bic	r3, r3, #31
 734              		.loc 2 149 0 discriminator 3
 735 004c B2F5A06F 		cmp	r2, #1280
 736              		.loc 2 152 0 discriminator 3
 737 0050 6B54     		strb	r3, [r5, r1]
 738              		.loc 2 149 0 discriminator 3
 739 0052 F1D1     		bne	.L50
 740              	.LBE172:
 741              		.loc 2 156 0
ARM GAS  C:\Users\me\AppData\Local\Temp\ccHjewEQ.s 			page 14


 742 0054 16B9     		cbnz	r6, .L59
 743              	.LVL72:
 744              	.L51:
 745              		.loc 2 161 0
 746 0056 86F00106 		eor	r6, r6, #1
 747              	.LVL73:
 748              		.loc 2 144 0
 749 005a E7E7     		b	.L52
 750              	.LVL74:
 751              	.L59:
 752              		.loc 2 158 0
 753 005c 4FF42071 		mov	r1, #640
 754 0060 2846     		mov	r0, r5
 755              	.LVL75:
 756 0062 FFF7FEFF 		bl	SendUint8ToComputer
 757              	.LVL76:
 758 0066 F6E7     		b	.L51
 759              	.L61:
 760              		.align	2
 761              	.L60:
 762 0068 00000000 		.word	ch
 763 006c 00000000 		.word	__stack_chk_guard
 764 0070 00000000 		.word	.LANCHOR4
 765 0074 00000000 		.word	.LANCHOR2
 766              		.cfi_endproc
 767              	.LFE259:
 768              		.size	ProcessImage, .-ProcessImage
 769              		.section	.text.get_distance_cm,"ax",%progbits
 770              		.align	1
 771              		.p2align 4,,15
 772              		.global	get_distance_cm
 773              		.syntax unified
 774              		.thumb
 775              		.thumb_func
 776              		.fpu fpv4-sp-d16
 777              		.type	get_distance_cm, %function
 778              	get_distance_cm:
 779              	.LFB260:
 780              		.loc 2 166 0
 781              		.cfi_startproc
 782              		@ args = 0, pretend = 0, frame = 8
 783              		@ frame_needed = 0, uses_anonymous_args = 0
 784 0000 00B5     		push	{lr}
 785              		.cfi_def_cfa_offset 4
 786              		.cfi_offset 14, -4
 787 0002 074B     		ldr	r3, .L66
 788 0004 83B0     		sub	sp, sp, #12
 789              		.cfi_def_cfa_offset 16
 790              		.loc 2 166 0
 791 0006 1A68     		ldr	r2, [r3]
 792 0008 0192     		str	r2, [sp, #4]
 793              		.loc 2 168 0
 794 000a 019A     		ldr	r2, [sp, #4]
 795 000c 1B68     		ldr	r3, [r3]
 796 000e 9A42     		cmp	r2, r3
 797 0010 04D1     		bne	.L65
 798 0012 9FED040A 		vldr.32	s0, .L66+4
ARM GAS  C:\Users\me\AppData\Local\Temp\ccHjewEQ.s 			page 15


 799 0016 03B0     		add	sp, sp, #12
 800              		.cfi_remember_state
 801              		.cfi_def_cfa_offset 4
 802              		@ sp needed
 803 0018 5DF804FB 		ldr	pc, [sp], #4
 804              	.L65:
 805              		.cfi_restore_state
 806 001c FFF7FEFF 		bl	__stack_chk_fail
 807              	.LVL77:
 808              	.L67:
 809              		.align	2
 810              	.L66:
 811 0020 00000000 		.word	__stack_chk_guard
 812 0024 00000000 		.word	0
 813              		.cfi_endproc
 814              	.LFE260:
 815              		.size	get_distance_cm, .-get_distance_cm
 816              		.section	.text.process_image_start,"ax",%progbits
 817              		.align	1
 818              		.p2align 4,,15
 819              		.global	process_image_start
 820              		.syntax unified
 821              		.thumb
 822              		.thumb_func
 823              		.fpu fpv4-sp-d16
 824              		.type	process_image_start, %function
 825              	process_image_start:
 826              	.LFB261:
 827              		.loc 2 170 0
 828              		.cfi_startproc
 829              		@ args = 0, pretend = 0, frame = 8
 830              		@ frame_needed = 0, uses_anonymous_args = 0
 831 0000 30B5     		push	{r4, r5, lr}
 832              		.cfi_def_cfa_offset 12
 833              		.cfi_offset 4, -12
 834              		.cfi_offset 5, -8
 835              		.cfi_offset 14, -4
 836 0002 0E4C     		ldr	r4, .L72
 837              		.loc 2 171 0
 838 0004 0E4B     		ldr	r3, .L72+4
 839              		.loc 2 170 0
 840 0006 2268     		ldr	r2, [r4]
 841              		.loc 2 171 0
 842 0008 0E48     		ldr	r0, .L72+8
 843              		.loc 2 170 0
 844 000a 85B0     		sub	sp, sp, #20
 845              		.cfi_def_cfa_offset 32
 846              		.loc 2 171 0
 847 000c 0025     		movs	r5, #0
 848              		.loc 2 170 0
 849 000e 0392     		str	r2, [sp, #12]
 850              		.loc 2 171 0
 851 0010 4FF4AF61 		mov	r1, #1400
 852 0014 4022     		movs	r2, #64
 853 0016 0095     		str	r5, [sp]
 854 0018 FFF7FEFF 		bl	chThdCreateStatic
 855              	.LVL78:
ARM GAS  C:\Users\me\AppData\Local\Temp\ccHjewEQ.s 			page 16


 856              		.loc 2 172 0
 857 001c 0A4B     		ldr	r3, .L72+12
 858 001e 0095     		str	r5, [sp]
 859 0020 4022     		movs	r2, #64
 860 0022 0A48     		ldr	r0, .L72+16
 861 0024 4FF41E71 		mov	r1, #632
 862 0028 FFF7FEFF 		bl	chThdCreateStatic
 863              	.LVL79:
 864              		.loc 2 173 0
 865 002c 039A     		ldr	r2, [sp, #12]
 866 002e 2368     		ldr	r3, [r4]
 867 0030 9A42     		cmp	r2, r3
 868 0032 01D1     		bne	.L71
 869 0034 05B0     		add	sp, sp, #20
 870              		.cfi_remember_state
 871              		.cfi_def_cfa_offset 12
 872              		@ sp needed
 873 0036 30BD     		pop	{r4, r5, pc}
 874              	.L71:
 875              		.cfi_restore_state
 876 0038 FFF7FEFF 		bl	__stack_chk_fail
 877              	.LVL80:
 878              	.L73:
 879              		.align	2
 880              	.L72:
 881 003c 00000000 		.word	__stack_chk_guard
 882 0040 00000000 		.word	ProcessImage
 883 0044 00000000 		.word	.LANCHOR5
 884 0048 00000000 		.word	CaptureImage
 885 004c 00000000 		.word	.LANCHOR6
 886              		.cfi_endproc
 887              	.LFE261:
 888              		.size	process_image_start, .-process_image_start
 889              		.section	.bss.waCaptureImage,"aw",%nobits
 890              		.align	3
 891              		.set	.LANCHOR6,. + 0
 892              		.type	waCaptureImage, %object
 893              		.size	waCaptureImage, 632
 894              	waCaptureImage:
 895 0000 00000000 		.space	632
 895      00000000 
 895      00000000 
 895      00000000 
 895      00000000 
 896              		.section	.bss.waProcessImage,"aw",%nobits
 897              		.align	3
 898              		.set	.LANCHOR5,. + 0
 899              		.type	waProcessImage, %object
 900              		.size	waProcessImage, 1400
 901              	waProcessImage:
 902 0000 00000000 		.space	1400
 902      00000000 
 902      00000000 
 902      00000000 
 902      00000000 
 903              		.section	.data.image_ready_sem,"aw",%progbits
 904              		.align	2
ARM GAS  C:\Users\me\AppData\Local\Temp\ccHjewEQ.s 			page 17


 905              		.set	.LANCHOR2,. + 0
 906              		.type	image_ready_sem, %object
 907              		.size	image_ready_sem, 12
 908              	image_ready_sem:
 909 0000 00000000 		.word	image_ready_sem
 910 0004 00000000 		.word	image_ready_sem
 911 0008 00000000 		.word	0
 912              		.section	.data.last_width.11340,"aw",%progbits
 913              		.align	1
 914              		.set	.LANCHOR3,. + 0
 915              		.type	last_width.11340, %object
 916              		.size	last_width.11340, 2
 917              	last_width.11340:
 918 0000 9D00     		.short	157
 919              		.section	.rodata.__FUNCTION__.11358,"a",%progbits
 920              		.align	2
 921              		.set	.LANCHOR0,. + 0
 922              		.type	__FUNCTION__.11358, %object
 923              		.size	__FUNCTION__.11358, 13
 924              	__FUNCTION__.11358:
 925 0000 43617074 		.ascii	"CaptureImage\000"
 925      75726549 
 925      6D616765 
 925      00
 926              		.section	.rodata.__FUNCTION__.11366,"a",%progbits
 927              		.align	2
 928              		.set	.LANCHOR4,. + 0
 929              		.type	__FUNCTION__.11366, %object
 930              		.size	__FUNCTION__.11366, 13
 931              	__FUNCTION__.11366:
 932 0000 50726F63 		.ascii	"ProcessImage\000"
 932      65737349 
 932      6D616765 
 932      00
 933              		.section	.rodata.__func__.7153,"a",%progbits
 934              		.align	2
 935              		.set	.LANCHOR1,. + 0
 936              		.type	__func__.7153, %object
 937              		.size	__func__.7153, 12
 938              	__func__.7153:
 939 0000 63685379 		.ascii	"chSysUnlock\000"
 939      73556E6C 
 939      6F636B00 
 940              		.section	.rodata.chprintf.constprop.0.str1.4,"aMS",%progbits,1
 941              		.align	2
 942              	.LC0:
 943 0000 63617074 		.ascii	"capture time = %d\012\000"
 943      75726520 
 943      74696D65 
 943      203D2025 
 943      640A00
 944              		.text
 945              	.Letext0:
 946              		.file 8 "c:\\eclipse_e-puck2\\tools\\gcc-arm-none-eabi-7-2017-q4-major-win32\\lib\\gcc\\arm-none-e
 947              		.file 9 "c:\\eclipse_e-puck2\\tools\\gcc-arm-none-eabi-7-2017-q4-major-win32\\arm-none-eabi\\inclu
 948              		.file 10 "c:\\eclipse_e-puck2\\tools\\gcc-arm-none-eabi-7-2017-q4-major-win32\\arm-none-eabi\\incl
 949              		.file 11 "../../lib/e-puck2_main-processor/ChibiOS//os/rt/ports/ARMCMx/compilers/GCC/chtypes.h"
ARM GAS  C:\Users\me\AppData\Local\Temp\ccHjewEQ.s 			page 18


 950              		.file 12 "../../lib/e-puck2_main-processor/ChibiOS//os/rt/include/chsystypes.h"
 951              		.file 13 "../../lib/e-puck2_main-processor/ChibiOS//os/rt/include/chschd.h"
 952              		.file 14 "../../lib/e-puck2_main-processor/ChibiOS//os/ext/CMSIS/include/core_cm4.h"
 953              		.file 15 "../../lib/e-puck2_main-processor/ChibiOS//os/ext/CMSIS/ST/system_stm32f4xx.h"
 954              		.file 16 "../../lib/e-puck2_main-processor/ChibiOS//os/ext/CMSIS/ST/stm32f407xx.h"
 955              		.file 17 "../../lib/e-puck2_main-processor/ChibiOS//os/rt/ports/ARMCMx/chcore.h"
 956              		.file 18 "../../lib/e-puck2_main-processor/ChibiOS//os/rt/ports/ARMCMx/chcore_v7m.h"
 957              		.file 19 "../../lib/e-puck2_main-processor/ChibiOS//os/rt/include/chdebug.h"
 958              		.file 20 "../../lib/e-puck2_main-processor/ChibiOS//os/rt/include/chtm.h"
 959              		.file 21 "../../lib/e-puck2_main-processor/ChibiOS//os/rt/include/chstats.h"
 960              		.file 22 "../../lib/e-puck2_main-processor/ChibiOS//os/rt/include/chsem.h"
 961              		.file 23 "../../lib/e-puck2_main-processor/ChibiOS//os/rt/include/chmtx.h"
 962              		.file 24 "../../lib/e-puck2_main-processor/ChibiOS//os/rt/include/chevents.h"
 963              		.file 25 "../../lib/e-puck2_main-processor/ChibiOS//os/rt/include/chqueues.h"
 964              		.file 26 "../../lib/e-puck2_main-processor/ChibiOS//os/rt/include/chstreams.h"
 965              		.file 27 "../../lib/e-puck2_main-processor/ChibiOS//os/hal/ports/STM32/STM32F4xx/stm32_dma.h"
 966              		.file 28 "../../lib/e-puck2_main-processor/ChibiOS//os/hal/include/hal_ioblock.h"
 967              		.file 29 "../../lib/e-puck2_main-processor/ChibiOS//os/hal/ports/STM32/LLD/GPIOv2/pal_lld.h"
 968              		.file 30 "../../lib/e-puck2_main-processor/ChibiOS//os/hal/include/adc.h"
 969              		.file 31 "../../lib/e-puck2_main-processor/ChibiOS//os/hal/ports/STM32/STM32F4xx/adc_lld.h"
 970              		.file 32 "../../lib/e-puck2_main-processor/ChibiOS//os/hal/include/can.h"
 971              		.file 33 "../../lib/e-puck2_main-processor/ChibiOS//os/hal/ports/STM32/LLD/can_lld.h"
 972              		.file 34 "../../lib/e-puck2_main-processor/ChibiOS//os/hal/include/dac.h"
 973              		.file 35 "../../lib/e-puck2_main-processor/ChibiOS//os/hal/ports/STM32/LLD/DACv1/dac_lld.h"
 974              		.file 36 "../../lib/e-puck2_main-processor/ChibiOS//os/hal/include/ext.h"
 975              		.file 37 "../../lib/e-puck2_main-processor/ChibiOS//os/hal/ports/STM32/LLD/ext_lld.h"
 976              		.file 38 "../../lib/e-puck2_main-processor/ChibiOS//os/hal/include/gpt.h"
 977              		.file 39 "../../lib/e-puck2_main-processor/ChibiOS//os/hal/ports/STM32/LLD/TIMv1/gpt_lld.h"
 978              		.file 40 "../../lib/e-puck2_main-processor/ChibiOS//os/hal/ports/STM32/LLD/TIMv1/stm32_tim.h"
 979              		.file 41 "../../lib/e-puck2_main-processor/ChibiOS//os/hal/include/i2c.h"
 980              		.file 42 "../../lib/e-puck2_main-processor/ChibiOS//os/hal/ports/STM32/LLD/I2Cv1/i2c_lld.h"
 981              		.file 43 "../../lib/e-puck2_main-processor/ChibiOS//os/hal/include/i2s.h"
 982              		.file 44 "../../lib/e-puck2_main-processor/ChibiOS//os/hal/ports/STM32/LLD/SPIv1/i2s_lld.h"
 983              		.file 45 "../../lib/e-puck2_main-processor/ChibiOS//os/hal/include/pwm.h"
 984              		.file 46 "../../lib/e-puck2_main-processor/ChibiOS//os/hal/ports/STM32/LLD/TIMv1/pwm_lld.h"
 985              		.file 47 "../../lib/e-puck2_main-processor/ChibiOS//os/hal/include/serial.h"
 986              		.file 48 "../../lib/e-puck2_main-processor/ChibiOS//os/hal/ports/STM32/LLD/USARTv1/serial_lld.h"
 987              		.file 49 "../../lib/e-puck2_main-processor/ChibiOS//os/hal/include/sdc.h"
 988              		.file 50 "../../lib/e-puck2_main-processor/ChibiOS//os/hal/ports/STM32/LLD/sdc_lld.h"
 989              		.file 51 "../../lib/e-puck2_main-processor/ChibiOS//os/hal/include/spi.h"
 990              		.file 52 "../../lib/e-puck2_main-processor/ChibiOS//os/hal/ports/STM32/LLD/SPIv1/spi_lld.h"
 991              		.file 53 "../../lib/e-puck2_main-processor/ChibiOS//os/hal/include/usb.h"
 992              		.file 54 "../../lib/e-puck2_main-processor/ChibiOS//os/hal/ports/STM32/LLD/OTGv1/usb_lld.h"
 993              		.file 55 "../../lib/e-puck2_main-processor/ChibiOS//os/hal/ports/STM32/LLD/OTGv1/stm32_otg.h"
 994              		.file 56 "../../lib/e-puck2_main-processor/ChibiOS//os/hal/include/serial_usb.h"
 995              		.file 57 "c:\\eclipse_e-puck2\\tools\\gcc-arm-none-eabi-7-2017-q4-major-win32\\lib\\gcc\\arm-none-
 996              		.file 58 "<built-in>"
 997              		.file 59 "../../lib/e-puck2_main-processor/src/usbcfg.h"
 998              		.file 60 "../../lib/e-puck2_main-processor/ChibiOS_ext/os/hal/include/../ports/STM32/STM32F4xx/dcm
 999              		.file 61 "../../lib/e-puck2_main-processor/src/camera/po8030.h"
 1000              		.file 62 "../../lib/e-puck2_main-processor/src/camera/dcmi_camera.h"
 1001              		.file 63 "c:\\eclipse_e-puck2\\tools\\gcc-arm-none-eabi-7-2017-q4-major-win32\\arm-none-eabi\\incl
 1002              		.file 64 "c:\\eclipse_e-puck2\\tools\\gcc-arm-none-eabi-7-2017-q4-major-win32\\arm-none-eabi\\incl
 1003              		.file 65 "c:\\eclipse_e-puck2\\tools\\gcc-arm-none-eabi-7-2017-q4-major-win32\\arm-none-eabi\\incl
 1004              		.file 66 "../../lib/e-puck2_main-processor/src/msgbus/messagebus.h"
 1005              		.file 67 "c:\\eclipse_e-puck2\\tools\\gcc-arm-none-eabi-7-2017-q4-major-win32\\arm-none-eabi\\incl
 1006              		.file 68 "c:\\eclipse_e-puck2\\tools\\gcc-arm-none-eabi-7-2017-q4-major-win32\\arm-none-eabi\\incl
ARM GAS  C:\Users\me\AppData\Local\Temp\ccHjewEQ.s 			page 19


 1007              		.file 69 "../../lib/e-puck2_main-processor/src/parameter/parameter.h"
 1008              		.file 70 "./main.h"
 1009              		.file 71 "../../lib/e-puck2_main-processor/ChibiOS//os/rt/include/chthreads.h"