ARM GAS  /var/folders/cj/4x95q5t97lndwv1w346ymmsw0000gn/T//ccpzDWbM.s 			page 1


   1              		.cpu cortex-m4
   2              		.eabi_attribute 27, 1
   3              		.eabi_attribute 28, 1
   4              		.eabi_attribute 20, 1
   5              		.eabi_attribute 21, 1
   6              		.eabi_attribute 23, 3
   7              		.eabi_attribute 24, 1
   8              		.eabi_attribute 25, 1
   9              		.eabi_attribute 26, 1
  10              		.eabi_attribute 30, 2
  11              		.eabi_attribute 34, 1
  12              		.eabi_attribute 18, 4
  13              		.file	"process_image.c"
  14              		.text
  15              	.Ltext0:
  16              		.cfi_sections	.debug_frame
  17              		.section	.text.CaptureImage,"ax",%progbits
  18              		.align	1
  19              		.p2align 4,,15
  20              		.syntax unified
  21              		.thumb
  22              		.thumb_func
  23              		.fpu fpv4-sp-d16
  24              		.type	CaptureImage, %function
  25              	CaptureImage:
  26              	.LFB258:
  27              		.file 1 "process_image.c"
  28              		.loc 1 103 0
  29              		.cfi_startproc
  30              		@ Volatile: function does not return.
  31              		@ args = 0, pretend = 0, frame = 8
  32              		@ frame_needed = 0, uses_anonymous_args = 0
  33              	.LVL0:
  34 0000 80B5     		push	{r7, lr}
  35              		.cfi_def_cfa_offset 8
  36              		.cfi_offset 7, -8
  37              		.cfi_offset 14, -4
  38              	.LBB51:
  39              	.LBB52:
  40              		.file 2 "../../lib/e-puck2_main-processor/ChibiOS//os/rt/include/chregistry.h"
  41              		.loc 2 135 0
  42 0002 234C     		ldr	r4, .L8
  43              	.LBE52:
  44              	.LBE51:
  45              		.loc 1 103 0
  46 0004 234A     		ldr	r2, .L8+4
  47              	.LBB55:
  48              	.LBB53:
  49              		.loc 2 135 0
  50 0006 A369     		ldr	r3, [r4, #24]
  51 0008 2349     		ldr	r1, .L8+8
  52              	.LBE53:
  53              	.LBE55:
  54              		.loc 1 103 0
  55 000a 1668     		ldr	r6, [r2]
  56              	.LBB56:
  57              	.LBB54:
ARM GAS  /var/folders/cj/4x95q5t97lndwv1w346ymmsw0000gn/T//ccpzDWbM.s 			page 2


  58              		.loc 2 135 0
  59 000c 9961     		str	r1, [r3, #24]
  60              	.LBE54:
  61              	.LBE56:
  62              		.loc 1 103 0
  63 000e 86B0     		sub	sp, sp, #24
  64              		.cfi_def_cfa_offset 32
  65              		.loc 1 109 0
  66 0010 0223     		movs	r3, #2
  67 0012 2025     		movs	r5, #32
  68 0014 0A22     		movs	r2, #10
  69 0016 0021     		movs	r1, #0
  70 0018 0093     		str	r3, [sp]
  71              		.loc 1 103 0
  72 001a 0596     		str	r6, [sp, #20]
  73              		.loc 1 109 0
  74 001c 4FF42073 		mov	r3, #640
  75 0020 CDE90155 		strd	r5, r5, [sp, #4]
  76 0024 3020     		movs	r0, #48
  77              	.LVL1:
  78 0026 1D4E     		ldr	r6, .L8+12
  79              	.LBB57:
  80              	.LBB58:
  81              	.LBB59:
  82              	.LBB60:
  83              		.file 3 "../../lib/e-puck2_main-processor/ChibiOS//os/rt/include/chsys.h"
  84              		.loc 3 367 0
  85 0028 1D4F     		ldr	r7, .L8+16
  86              	.LBE60:
  87              	.LBE59:
  88              	.LBE58:
  89              	.LBE57:
  90              		.loc 1 109 0
  91 002a FFF7FEFF 		bl	po8030_advanced_config
  92              	.LVL2:
  93              		.loc 1 110 0
  94 002e FFF7FEFF 		bl	dcmi_enable_double_buffering
  95              	.LVL3:
  96              		.loc 1 111 0
  97 0032 0020     		movs	r0, #0
  98 0034 FFF7FEFF 		bl	dcmi_set_capture_mode
  99              	.LVL4:
 100              	.LBB78:
 101              	.LBB75:
 102              	.LBB65:
 103              	.LBB66:
 104              		.file 4 "../../lib/e-puck2_main-processor/ChibiOS//os/rt/include/chbsem.h"
 105              		.loc 4 271 0
 106 0038 B046     		mov	r8, r6
 107              	.LBE66:
 108              	.LBE65:
 109              	.LBE75:
 110              	.LBE78:
 111              		.loc 1 112 0
 112 003a FFF7FEFF 		bl	dcmi_prepare
 113              	.LVL5:
 114 003e 13E0     		b	.L4
ARM GAS  /var/folders/cj/4x95q5t97lndwv1w346ymmsw0000gn/T//ccpzDWbM.s 			page 3


 115              	.LVL6:
 116              	.L2:
 117              	.LBB79:
 118              	.LBB76:
 119              		.loc 4 286 0
 120 0040 FFF7FEFF 		bl	chSchRescheduleS
 121              	.LVL7:
 122              	.LBB68:
 123              	.LBB64:
 124              		.loc 3 360 0
 125 0044 FFF7FEFF 		bl	_dbg_check_unlock
 126              	.LVL8:
 127              		.loc 3 361 0
 128 0048 FFF7FEFF 		bl	_stats_stop_measure_crit_thd
 129              	.LVL9:
 130              		.loc 3 367 0
 131 004c 2368     		ldr	r3, [r4]
 132 004e A342     		cmp	r3, r4
 133 0050 07D0     		beq	.L3
 134 0052 A269     		ldr	r2, [r4, #24]
 135 0054 9B68     		ldr	r3, [r3, #8]
 136 0056 9268     		ldr	r2, [r2, #8]
 137 0058 9A42     		cmp	r2, r3
 138 005a 02D2     		bcs	.L3
 139 005c 3846     		mov	r0, r7
 140 005e FFF7FEFF 		bl	chSysHalt
 141              	.LVL10:
 142              	.L3:
 143              	.LBB61:
 144              	.LBB62:
 145              	.LBB63:
 146              		.file 5 "../../lib/e-puck2_main-processor/ChibiOS//os/ext/CMSIS/include/core_cmFunc.h"
 147              		.loc 5 546 0
 148 0062 0023     		movs	r3, #0
 149              		.syntax unified
 150              	@ 546 "../../lib/e-puck2_main-processor/ChibiOS//os/ext/CMSIS/include/core_cmFunc.h" 1
 151 0064 83F31188 		MSR basepri, r3
 152              	@ 0 "" 2
 153              	.LVL11:
 154              		.thumb
 155              		.syntax unified
 156              	.L4:
 157              	.LBE63:
 158              	.LBE62:
 159              	.LBE61:
 160              	.LBE64:
 161              	.LBE68:
 162              	.LBE76:
 163              	.LBE79:
 164              		.loc 1 116 0 discriminator 1
 165 0068 FFF7FEFF 		bl	dcmi_capture_start
 166              	.LVL12:
 167              		.loc 1 118 0 discriminator 1
 168 006c FFF7FEFF 		bl	wait_image_ready
 169              	.LVL13:
 170              	.LBB80:
 171              	.LBB77:
ARM GAS  /var/folders/cj/4x95q5t97lndwv1w346ymmsw0000gn/T//ccpzDWbM.s 			page 4


 172              	.LBB69:
 173              	.LBB70:
 174              	.LBB71:
 175              	.LBB72:
 176              	.LBB73:
 177              		.loc 5 546 0 discriminator 1
 178              		.syntax unified
 179              	@ 546 "../../lib/e-puck2_main-processor/ChibiOS//os/ext/CMSIS/include/core_cmFunc.h" 1
 180 0070 85F31188 		MSR basepri, r5
 181              	@ 0 "" 2
 182              	.LVL14:
 183              		.thumb
 184              		.syntax unified
 185              	.LBE73:
 186              	.LBE72:
 187              	.LBE71:
 188              		.loc 3 349 0 discriminator 1
 189 0074 FFF7FEFF 		bl	_stats_start_measure_crit_thd
 190              	.LVL15:
 191              		.loc 3 350 0 discriminator 1
 192 0078 FFF7FEFF 		bl	_dbg_check_lock
 193              	.LVL16:
 194              	.LBE70:
 195              	.LBE69:
 196              	.LBB74:
 197              	.LBB67:
 198              		.loc 4 268 0 discriminator 1
 199 007c FFF7FEFF 		bl	chDbgCheckClassI
 200              	.LVL17:
 201              		.loc 4 270 0 discriminator 1
 202 0080 B368     		ldr	r3, [r6, #8]
 203 0082 002B     		cmp	r3, #0
 204 0084 DCDC     		bgt	.L2
 205              		.loc 4 271 0
 206 0086 4046     		mov	r0, r8
 207 0088 FFF7FEFF 		bl	chSemSignalI
 208              	.LVL18:
 209 008c D8E7     		b	.L2
 210              	.L9:
 211 008e 00BF     		.align	2
 212              	.L8:
 213 0090 00000000 		.word	ch
 214 0094 00000000 		.word	__stack_chk_guard
 215 0098 00000000 		.word	.LANCHOR0
 216 009c 00000000 		.word	.LANCHOR1
 217 00a0 00000000 		.word	.LANCHOR2
 218              	.LBE67:
 219              	.LBE74:
 220              	.LBE77:
 221              	.LBE80:
 222              		.cfi_endproc
 223              	.LFE258:
 224              		.size	CaptureImage, .-CaptureImage
 225              		.section	.text.extract_line_width,"ax",%progbits
 226              		.align	1
 227              		.p2align 4,,15
 228              		.global	extract_line_width
ARM GAS  /var/folders/cj/4x95q5t97lndwv1w346ymmsw0000gn/T//ccpzDWbM.s 			page 5


 229              		.syntax unified
 230              		.thumb
 231              		.thumb_func
 232              		.fpu fpv4-sp-d16
 233              		.type	extract_line_width, %function
 234              	extract_line_width:
 235              	.LFB257:
 236              		.loc 1 22 0
 237              		.cfi_startproc
 238              		@ args = 0, pretend = 0, frame = 8
 239              		@ frame_needed = 0, uses_anonymous_args = 0
 240              	.LVL19:
 241 0000 F0B5     		push	{r4, r5, r6, r7, lr}
 242              		.cfi_def_cfa_offset 20
 243              		.cfi_offset 4, -20
 244              		.cfi_offset 5, -16
 245              		.cfi_offset 6, -12
 246              		.cfi_offset 7, -8
 247              		.cfi_offset 14, -4
 248 0002 344C     		ldr	r4, .L39
 249 0004 83B0     		sub	sp, sp, #12
 250              		.cfi_def_cfa_offset 32
 251              		.loc 1 22 0
 252 0006 2368     		ldr	r3, [r4]
 253 0008 0193     		str	r3, [sp, #4]
 254              	.LVL20:
 255 000a 00F27F25 		addw	r5, r0, #639
 256 000e 431E     		subs	r3, r0, #1
 257              		.loc 1 26 0
 258 0010 0022     		movs	r2, #0
 259              	.LVL21:
 260              	.L11:
 261              	.LBB81:
 262              		.loc 1 32 0 discriminator 3
 263 0012 13F8011F 		ldrb	r1, [r3, #1]!	@ zero_extendqisi2
 264              		.loc 1 31 0 discriminator 3
 265 0016 9D42     		cmp	r5, r3
 266              		.loc 1 32 0 discriminator 3
 267 0018 0A44     		add	r2, r2, r1
 268              	.LVL22:
 269              		.loc 1 31 0 discriminator 3
 270 001a FAD1     		bne	.L11
 271              	.LBE81:
 272              		.loc 1 34 0
 273 001c 2E4B     		ldr	r3, .L39+4
 274 001e 0578     		ldrb	r5, [r0]	@ zero_extendqisi2
 275 0020 A3FB0232 		umull	r3, r2, r3, r2
 276              	.LVL23:
 277 0024 520A     		lsrs	r2, r2, #9
 278              	.LVL24:
 279              		.loc 1 24 0
 280 0026 0021     		movs	r1, #0
 281              		.loc 1 39 0
 282 0028 40F27A26 		movw	r6, #634
 283              	.LVL25:
 284              	.L12:
 285 002c 4B1C     		adds	r3, r1, #1
ARM GAS  /var/folders/cj/4x95q5t97lndwv1w346ymmsw0000gn/T//ccpzDWbM.s 			page 6


 286              		.loc 1 43 0
 287 002e 9542     		cmp	r5, r2
 288 0030 9BB2     		uxth	r3, r3
 289 0032 1FD9     		bls	.L14
 290              	.L37:
 291              		.loc 1 43 0 is_stmt 0 discriminator 1
 292 0034 4518     		adds	r5, r0, r1
 293 0036 6D79     		ldrb	r5, [r5, #5]	@ zero_extendqisi2
 294 0038 9542     		cmp	r5, r2
 295 003a 1BD2     		bcs	.L14
 296              	.LVL26:
 297              		.loc 1 51 0 is_stmt 1
 298 003c B342     		cmp	r3, r6
 299 003e 25D8     		bhi	.L13
 300              		.loc 1 51 0 is_stmt 0 discriminator 1
 301 0040 21B3     		cbz	r1, .L13
 302 0042 03F1FF3C 		add	ip, r3, #-1
 303 0046 8444     		add	ip, ip, r0
 304              	.LVL27:
 305              	.L22:
 306              		.loc 1 57 0 is_stmt 1
 307 0048 1CF8015F 		ldrb	r5, [ip, #1]!	@ zero_extendqisi2
 308 004c 9542     		cmp	r5, r2
 309 004e 9FB2     		uxth	r7, r3
 310 0050 15D9     		bls	.L17
 311              		.loc 1 57 0 is_stmt 0 discriminator 1
 312 0052 1CF805EC 		ldrb	lr, [ip, #-5]	@ zero_extendqisi2
 313 0056 9645     		cmp	lr, r2
 314 0058 11D2     		bcs	.L17
 315              	.LVL28:
 316              		.loc 1 76 0 is_stmt 1
 317 005a A7EB010C 		sub	ip, r7, r1
 318 005e BCF1270F 		cmp	ip, #39
 319 0062 3B46     		mov	r3, r7
 320 0064 2ADC     		bgt	.L36
 321              	.LVL29:
 322              		.loc 1 39 0
 323 0066 B742     		cmp	r7, r6
 324 0068 10D8     		bhi	.L13
 325 006a 3946     		mov	r1, r7
 326 006c 4B1C     		adds	r3, r1, #1
 327              		.loc 1 43 0
 328 006e 9542     		cmp	r5, r2
 329 0070 9BB2     		uxth	r3, r3
 330 0072 DFD8     		bhi	.L37
 331              	.LVL30:
 332              	.L14:
 333              		.loc 1 39 0 discriminator 1
 334 0074 B342     		cmp	r3, r6
 335 0076 09D8     		bhi	.L13
 336 0078 C55C     		ldrb	r5, [r0, r3]	@ zero_extendqisi2
 337              	.LVL31:
 338              		.loc 1 39 0 is_stmt 0
 339 007a 1946     		mov	r1, r3
 340 007c D6E7     		b	.L12
 341              	.LVL32:
 342              	.L17:
ARM GAS  /var/folders/cj/4x95q5t97lndwv1w346ymmsw0000gn/T//ccpzDWbM.s 			page 7


 343 007e 0137     		adds	r7, r7, #1
 344 0080 BFB2     		uxth	r7, r7
 345              	.LVL33:
 346              		.loc 1 55 0 is_stmt 1
 347 0082 B7F5207F 		cmp	r7, #640
 348 0086 03F10103 		add	r3, r3, #1
 349 008a DDD1     		bne	.L22
 350              	.LVL34:
 351              	.L13:
 352              		.loc 1 88 0
 353 008c 134B     		ldr	r3, .L39+8
 354 008e 1888     		ldrh	r0, [r3]
 355              	.LVL35:
 356              	.L25:
 357              		.loc 1 95 0
 358 0090 DFED136A 		vldr.32	s13, .L39+12
 359              		.loc 1 100 0
 360 0094 019A     		ldr	r2, [sp, #4]
 361 0096 2368     		ldr	r3, [r4]
 362              		.loc 1 95 0
 363 0098 07EE900A 		vmov	s15, r0	@ int
 364 009c F8EEE77A 		vcvt.f32.s32	s15, s15
 365 00a0 86EEA77A 		vdiv.f32	s14, s13, s15
 366 00a4 F3EE097A 		vmov.f32	s15, #2.5e+1
 367              		.loc 1 96 0
 368 00a8 B4EE677A 		vcmp.f32	s14, s15
 369 00ac F1EE10FA 		vmrs	APSR_nzcv, FPSCR
 370              		.loc 1 100 0
 371 00b0 C8BF     		it	gt
 372 00b2 3E20     		movgt	r0, #62
 373              	.LVL36:
 374 00b4 9A42     		cmp	r2, r3
 375 00b6 0AD1     		bne	.L38
 376 00b8 03B0     		add	sp, sp, #12
 377              		.cfi_remember_state
 378              		.cfi_def_cfa_offset 20
 379              		@ sp needed
 380 00ba F0BD     		pop	{r4, r5, r6, r7, pc}
 381              	.LVL37:
 382              	.L36:
 383              		.cfi_restore_state
 384              		.loc 1 90 0
 385 00bc 781A     		subs	r0, r7, r1
 386              	.LVL38:
 387              		.loc 1 91 0
 388 00be 0B44     		add	r3, r3, r1
 389 00c0 084A     		ldr	r2, .L39+16
 390              	.LVL39:
 391              		.loc 1 90 0
 392 00c2 0649     		ldr	r1, .L39+8
 393 00c4 80B2     		uxth	r0, r0
 394              	.LVL40:
 395              		.loc 1 91 0
 396 00c6 5B10     		asrs	r3, r3, #1
 397              		.loc 1 90 0
 398 00c8 0880     		strh	r0, [r1]	@ movhi
 399              		.loc 1 91 0
ARM GAS  /var/folders/cj/4x95q5t97lndwv1w346ymmsw0000gn/T//ccpzDWbM.s 			page 8


 400 00ca 1380     		strh	r3, [r2]	@ movhi
 401 00cc E0E7     		b	.L25
 402              	.LVL41:
 403              	.L38:
 404              		.loc 1 100 0
 405 00ce FFF7FEFF 		bl	__stack_chk_fail
 406              	.LVL42:
 407              	.L40:
 408 00d2 00BF     		.align	2
 409              	.L39:
 410 00d4 00000000 		.word	__stack_chk_guard
 411 00d8 CDCCCCCC 		.word	-858993459
 412 00dc 00000000 		.word	.LANCHOR3
 413 00e0 0040C444 		.word	1153712128
 414 00e4 00000000 		.word	.LANCHOR4
 415              		.cfi_endproc
 416              	.LFE257:
 417              		.size	extract_line_width, .-extract_line_width
 418              		.section	.text.ProcessImage,"ax",%progbits
 419              		.align	1
 420              		.p2align 4,,15
 421              		.syntax unified
 422              		.thumb
 423              		.thumb_func
 424              		.fpu fpv4-sp-d16
 425              		.type	ProcessImage, %function
 426              	ProcessImage:
 427              	.LFB259:
 428              		.loc 1 126 0
 429              		.cfi_startproc
 430              		@ args = 0, pretend = 0, frame = 656
 431              		@ frame_needed = 0, uses_anonymous_args = 0
 432              	.LVL43:
 433 0000 2DE9F041 		push	{r4, r5, r6, r7, r8, lr}
 434              		.cfi_def_cfa_offset 24
 435              		.cfi_offset 4, -24
 436              		.cfi_offset 5, -20
 437              		.cfi_offset 6, -16
 438              		.cfi_offset 7, -12
 439              		.cfi_offset 8, -8
 440              		.cfi_offset 14, -4
 441 0004 2DED028B 		vpush.64	{d8}
 442              		.cfi_def_cfa_offset 32
 443              		.cfi_offset 80, -32
 444              		.cfi_offset 81, -28
 445              	.LBB82:
 446              	.LBB83:
 447              		.loc 2 135 0
 448 0008 1D4A     		ldr	r2, .L56
 449              	.LBE83:
 450              	.LBE82:
 451              		.loc 1 126 0
 452 000a 1E4B     		ldr	r3, .L56+4
 453              	.LBB85:
 454              	.LBB84:
 455              		.loc 2 135 0
 456 000c 9269     		ldr	r2, [r2, #24]
ARM GAS  /var/folders/cj/4x95q5t97lndwv1w346ymmsw0000gn/T//ccpzDWbM.s 			page 9


 457 000e 1E49     		ldr	r1, .L56+8
 458 0010 9161     		str	r1, [r2, #24]
 459              	.LBE84:
 460              	.LBE85:
 461              		.loc 1 126 0
 462 0012 ADF5247D 		sub	sp, sp, #656
 463              		.cfi_def_cfa_offset 688
 464              		.loc 1 132 0
 465 0016 03AC     		add	r4, sp, #12
 466              		.loc 1 126 0
 467 0018 1B68     		ldr	r3, [r3]
 468 001a A393     		str	r3, [sp, #652]
 469              		.loc 1 132 0
 470 001c 2046     		mov	r0, r4
 471              	.LVL44:
 472 001e 4FF42072 		mov	r2, #640
 473 0022 0021     		movs	r1, #0
 474 0024 FFF7FEFF 		bl	memset
 475              	.LVL45:
 476 0028 184F     		ldr	r7, .L56+12
 477              	.LBB86:
 478              	.LBB87:
 479              		.loc 4 143 0
 480 002a 194E     		ldr	r6, .L56+16
 481              	.LBE87:
 482              	.LBE86:
 483              		.loc 1 158 0
 484 002c 9FED198A 		vldr.32	s16, .L56+20
 485              		.loc 1 135 0
 486 0030 0125     		movs	r5, #1
 487              	.LBB89:
 488              		.loc 1 144 0
 489 0032 40F20158 		movw	r8, #1281
 490              	.LVL46:
 491              	.L45:
 492              	.LBE89:
 493              	.LBB90:
 494              	.LBB88:
 495              		.loc 4 143 0
 496 0036 3046     		mov	r0, r6
 497 0038 FFF7FEFF 		bl	chSemWait
 498              	.LVL47:
 499              	.LBE88:
 500              	.LBE90:
 501              		.loc 1 141 0
 502 003c FFF7FEFF 		bl	dcmi_get_last_image_ptr
 503              	.LVL48:
 504 0040 0123     		movs	r3, #1
 505              	.LVL49:
 506              	.L42:
 507              	.LBB91:
 508              		.loc 1 148 0 discriminator 3
 509 0042 C25C     		ldrb	r2, [r0, r3]	@ zero_extendqisi2
 510 0044 5910     		asrs	r1, r3, #1
 511 0046 0233     		adds	r3, r3, #2
 512              	.LVL50:
 513 0048 02F01F02 		and	r2, r2, #31
ARM GAS  /var/folders/cj/4x95q5t97lndwv1w346ymmsw0000gn/T//ccpzDWbM.s 			page 10


 514              		.loc 1 144 0 discriminator 3
 515 004c 4345     		cmp	r3, r8
 516              		.loc 1 148 0 discriminator 3
 517 004e 6254     		strb	r2, [r4, r1]
 518              		.loc 1 144 0 discriminator 3
 519 0050 F7D1     		bne	.L42
 520              	.LBE91:
 521              		.loc 1 154 0
 522 0052 2046     		mov	r0, r4
 523              	.LVL51:
 524 0054 FFF7FEFF 		bl	extract_line_width
 525              	.LVL52:
 526              		.loc 1 157 0
 527 0058 0190     		str	r0, [sp, #4]
 528 005a 38B1     		cbz	r0, .L43
 529              		.loc 1 158 0
 530 005c 07EE900A 		vmov	s15, r0	@ int
 531 0060 F8EEE77A 		vcvt.f32.s32	s15, s15
 532 0064 88EE277A 		vdiv.f32	s14, s16, s15
 533 0068 87ED007A 		vstr.32	s14, [r7]
 534              	.L43:
 535              		.loc 1 161 0
 536 006c 15B9     		cbnz	r5, .L55
 537              	.LVL53:
 538              	.L44:
 539              		.loc 1 166 0
 540 006e 85F00105 		eor	r5, r5, #1
 541              	.LVL54:
 542              		.loc 1 139 0
 543 0072 E0E7     		b	.L45
 544              	.LVL55:
 545              	.L55:
 546              		.loc 1 163 0
 547 0074 4FF42071 		mov	r1, #640
 548 0078 2046     		mov	r0, r4
 549              	.LVL56:
 550 007a FFF7FEFF 		bl	SendUint8ToComputer
 551              	.LVL57:
 552 007e F6E7     		b	.L44
 553              	.L57:
 554              		.align	2
 555              	.L56:
 556 0080 00000000 		.word	ch
 557 0084 00000000 		.word	__stack_chk_guard
 558 0088 00000000 		.word	.LANCHOR5
 559 008c 00000000 		.word	.LANCHOR6
 560 0090 00000000 		.word	.LANCHOR1
 561 0094 0040C444 		.word	1153712128
 562              		.cfi_endproc
 563              	.LFE259:
 564              		.size	ProcessImage, .-ProcessImage
 565              		.section	.text.get_distance_cm,"ax",%progbits
 566              		.align	1
 567              		.p2align 4,,15
 568              		.global	get_distance_cm
 569              		.syntax unified
 570              		.thumb
ARM GAS  /var/folders/cj/4x95q5t97lndwv1w346ymmsw0000gn/T//ccpzDWbM.s 			page 11


 571              		.thumb_func
 572              		.fpu fpv4-sp-d16
 573              		.type	get_distance_cm, %function
 574              	get_distance_cm:
 575              	.LFB260:
 576              		.loc 1 170 0
 577              		.cfi_startproc
 578              		@ args = 0, pretend = 0, frame = 8
 579              		@ frame_needed = 0, uses_anonymous_args = 0
 580 0000 00B5     		push	{lr}
 581              		.cfi_def_cfa_offset 4
 582              		.cfi_offset 14, -4
 583 0002 084B     		ldr	r3, .L62
 584              		.loc 1 171 0
 585 0004 0849     		ldr	r1, .L62+4
 586              		.loc 1 170 0
 587 0006 1A68     		ldr	r2, [r3]
 588              		.loc 1 172 0
 589 0008 91ED000A 		vldr.32	s0, [r1]
 590              		.loc 1 170 0
 591 000c 83B0     		sub	sp, sp, #12
 592              		.cfi_def_cfa_offset 16
 593              		.loc 1 170 0
 594 000e 0192     		str	r2, [sp, #4]
 595              		.loc 1 172 0
 596 0010 019A     		ldr	r2, [sp, #4]
 597 0012 1B68     		ldr	r3, [r3]
 598 0014 9A42     		cmp	r2, r3
 599 0016 02D1     		bne	.L61
 600 0018 03B0     		add	sp, sp, #12
 601              		.cfi_remember_state
 602              		.cfi_def_cfa_offset 4
 603              		@ sp needed
 604 001a 5DF804FB 		ldr	pc, [sp], #4
 605              	.L61:
 606              		.cfi_restore_state
 607 001e FFF7FEFF 		bl	__stack_chk_fail
 608              	.LVL58:
 609              	.L63:
 610 0022 00BF     		.align	2
 611              	.L62:
 612 0024 00000000 		.word	__stack_chk_guard
 613 0028 00000000 		.word	.LANCHOR6
 614              		.cfi_endproc
 615              	.LFE260:
 616              		.size	get_distance_cm, .-get_distance_cm
 617              		.section	.text.get_line_position,"ax",%progbits
 618              		.align	1
 619              		.p2align 4,,15
 620              		.global	get_line_position
 621              		.syntax unified
 622              		.thumb
 623              		.thumb_func
 624              		.fpu fpv4-sp-d16
 625              		.type	get_line_position, %function
 626              	get_line_position:
 627              	.LFB261:
ARM GAS  /var/folders/cj/4x95q5t97lndwv1w346ymmsw0000gn/T//ccpzDWbM.s 			page 12


 628              		.loc 1 174 0
 629              		.cfi_startproc
 630              		@ args = 0, pretend = 0, frame = 8
 631              		@ frame_needed = 0, uses_anonymous_args = 0
 632 0000 00B5     		push	{lr}
 633              		.cfi_def_cfa_offset 4
 634              		.cfi_offset 14, -4
 635 0002 074B     		ldr	r3, .L68
 636              		.loc 1 175 0
 637 0004 0749     		ldr	r1, .L68+4
 638              		.loc 1 174 0
 639 0006 1A68     		ldr	r2, [r3]
 640              		.loc 1 176 0
 641 0008 0888     		ldrh	r0, [r1]
 642              		.loc 1 174 0
 643 000a 83B0     		sub	sp, sp, #12
 644              		.cfi_def_cfa_offset 16
 645              		.loc 1 174 0
 646 000c 0192     		str	r2, [sp, #4]
 647              		.loc 1 176 0
 648 000e 019A     		ldr	r2, [sp, #4]
 649 0010 1B68     		ldr	r3, [r3]
 650 0012 9A42     		cmp	r2, r3
 651 0014 02D1     		bne	.L67
 652 0016 03B0     		add	sp, sp, #12
 653              		.cfi_remember_state
 654              		.cfi_def_cfa_offset 4
 655              		@ sp needed
 656 0018 5DF804FB 		ldr	pc, [sp], #4
 657              	.L67:
 658              		.cfi_restore_state
 659 001c FFF7FEFF 		bl	__stack_chk_fail
 660              	.LVL59:
 661              	.L69:
 662              		.align	2
 663              	.L68:
 664 0020 00000000 		.word	__stack_chk_guard
 665 0024 00000000 		.word	.LANCHOR4
 666              		.cfi_endproc
 667              	.LFE261:
 668              		.size	get_line_position, .-get_line_position
 669              		.section	.text.process_image_start,"ax",%progbits
 670              		.align	1
 671              		.p2align 4,,15
 672              		.global	process_image_start
 673              		.syntax unified
 674              		.thumb
 675              		.thumb_func
 676              		.fpu fpv4-sp-d16
 677              		.type	process_image_start, %function
 678              	process_image_start:
 679              	.LFB262:
 680              		.loc 1 178 0
 681              		.cfi_startproc
 682              		@ args = 0, pretend = 0, frame = 8
 683              		@ frame_needed = 0, uses_anonymous_args = 0
 684 0000 30B5     		push	{r4, r5, lr}
ARM GAS  /var/folders/cj/4x95q5t97lndwv1w346ymmsw0000gn/T//ccpzDWbM.s 			page 13


 685              		.cfi_def_cfa_offset 12
 686              		.cfi_offset 4, -12
 687              		.cfi_offset 5, -8
 688              		.cfi_offset 14, -4
 689 0002 0E4C     		ldr	r4, .L74
 690              		.loc 1 179 0
 691 0004 0E4B     		ldr	r3, .L74+4
 692              		.loc 1 178 0
 693 0006 2268     		ldr	r2, [r4]
 694              		.loc 1 179 0
 695 0008 0E48     		ldr	r0, .L74+8
 696              		.loc 1 178 0
 697 000a 85B0     		sub	sp, sp, #20
 698              		.cfi_def_cfa_offset 32
 699              		.loc 1 179 0
 700 000c 0025     		movs	r5, #0
 701              		.loc 1 178 0
 702 000e 0392     		str	r2, [sp, #12]
 703              		.loc 1 179 0
 704 0010 4FF4AF61 		mov	r1, #1400
 705 0014 4022     		movs	r2, #64
 706 0016 0095     		str	r5, [sp]
 707 0018 FFF7FEFF 		bl	chThdCreateStatic
 708              	.LVL60:
 709              		.loc 1 180 0
 710 001c 0A4B     		ldr	r3, .L74+12
 711 001e 0095     		str	r5, [sp]
 712 0020 4022     		movs	r2, #64
 713 0022 0A48     		ldr	r0, .L74+16
 714 0024 4FF41E71 		mov	r1, #632
 715 0028 FFF7FEFF 		bl	chThdCreateStatic
 716              	.LVL61:
 717              		.loc 1 181 0
 718 002c 039A     		ldr	r2, [sp, #12]
 719 002e 2368     		ldr	r3, [r4]
 720 0030 9A42     		cmp	r2, r3
 721 0032 01D1     		bne	.L73
 722 0034 05B0     		add	sp, sp, #20
 723              		.cfi_remember_state
 724              		.cfi_def_cfa_offset 12
 725              		@ sp needed
 726 0036 30BD     		pop	{r4, r5, pc}
 727              	.L73:
 728              		.cfi_restore_state
 729 0038 FFF7FEFF 		bl	__stack_chk_fail
 730              	.LVL62:
 731              	.L75:
 732              		.align	2
 733              	.L74:
 734 003c 00000000 		.word	__stack_chk_guard
 735 0040 00000000 		.word	ProcessImage
 736 0044 00000000 		.word	.LANCHOR7
 737 0048 00000000 		.word	CaptureImage
 738 004c 00000000 		.word	.LANCHOR8
 739              		.cfi_endproc
 740              	.LFE262:
 741              		.size	process_image_start, .-process_image_start
ARM GAS  /var/folders/cj/4x95q5t97lndwv1w346ymmsw0000gn/T//ccpzDWbM.s 			page 14


 742              		.section	.bss.distance_cm,"aw",%nobits
 743              		.align	2
 744              		.set	.LANCHOR6,. + 0
 745              		.type	distance_cm, %object
 746              		.size	distance_cm, 4
 747              	distance_cm:
 748 0000 00000000 		.space	4
 749              		.section	.bss.waCaptureImage,"aw",%nobits
 750              		.align	3
 751              		.set	.LANCHOR8,. + 0
 752              		.type	waCaptureImage, %object
 753              		.size	waCaptureImage, 632
 754              	waCaptureImage:
 755 0000 00000000 		.space	632
 755      00000000 
 755      00000000 
 755      00000000 
 755      00000000 
 756              		.section	.bss.waProcessImage,"aw",%nobits
 757              		.align	3
 758              		.set	.LANCHOR7,. + 0
 759              		.type	waProcessImage, %object
 760              		.size	waProcessImage, 1400
 761              	waProcessImage:
 762 0000 00000000 		.space	1400
 762      00000000 
 762      00000000 
 762      00000000 
 762      00000000 
 763              		.section	.data.image_ready_sem,"aw",%progbits
 764              		.align	2
 765              		.set	.LANCHOR1,. + 0
 766              		.type	image_ready_sem, %object
 767              		.size	image_ready_sem, 12
 768              	image_ready_sem:
 769 0000 00000000 		.word	image_ready_sem
 770 0004 00000000 		.word	image_ready_sem
 771 0008 00000000 		.word	0
 772              		.section	.data.last_width.11339,"aw",%progbits
 773              		.align	1
 774              		.set	.LANCHOR3,. + 0
 775              		.type	last_width.11339, %object
 776              		.size	last_width.11339, 2
 777              	last_width.11339:
 778 0000 9D00     		.short	157
 779              		.section	.data.line_position,"aw",%progbits
 780              		.align	1
 781              		.set	.LANCHOR4,. + 0
 782              		.type	line_position, %object
 783              		.size	line_position, 2
 784              	line_position:
 785 0000 4001     		.short	320
 786              		.section	.rodata.__FUNCTION__.11356,"a",%progbits
 787              		.align	2
 788              		.set	.LANCHOR0,. + 0
 789              		.type	__FUNCTION__.11356, %object
 790              		.size	__FUNCTION__.11356, 13
ARM GAS  /var/folders/cj/4x95q5t97lndwv1w346ymmsw0000gn/T//ccpzDWbM.s 			page 15


 791              	__FUNCTION__.11356:
 792 0000 43617074 		.ascii	"CaptureImage\000"
 792      75726549 
 792      6D616765 
 792      00
 793              		.section	.rodata.__FUNCTION__.11362,"a",%progbits
 794              		.align	2
 795              		.set	.LANCHOR5,. + 0
 796              		.type	__FUNCTION__.11362, %object
 797              		.size	__FUNCTION__.11362, 13
 798              	__FUNCTION__.11362:
 799 0000 50726F63 		.ascii	"ProcessImage\000"
 799      65737349 
 799      6D616765 
 799      00
 800              		.section	.rodata.__func__.7153,"a",%progbits
 801              		.align	2
 802              		.set	.LANCHOR2,. + 0
 803              		.type	__func__.7153, %object
 804              		.size	__func__.7153, 12
 805              	__func__.7153:
 806 0000 63685379 		.ascii	"chSysUnlock\000"
 806      73556E6C 
 806      6F636B00 
 807              		.text
 808              	.Letext0:
 809              		.file 6 "/Applications/Eclipse_e-puck2.app/Contents/Eclipse_e-puck2/Tools/gcc-arm-none-eabi-7-2017
 810              		.file 7 "/Applications/Eclipse_e-puck2.app/Contents/Eclipse_e-puck2/Tools/gcc-arm-none-eabi-7-2017
 811              		.file 8 "/Applications/Eclipse_e-puck2.app/Contents/Eclipse_e-puck2/Tools/gcc-arm-none-eabi-7-2017
 812              		.file 9 "../../lib/e-puck2_main-processor/ChibiOS//os/rt/ports/ARMCMx/compilers/GCC/chtypes.h"
 813              		.file 10 "../../lib/e-puck2_main-processor/ChibiOS//os/rt/include/chsystypes.h"
 814              		.file 11 "../../lib/e-puck2_main-processor/ChibiOS//os/rt/include/chschd.h"
 815              		.file 12 "../../lib/e-puck2_main-processor/ChibiOS//os/ext/CMSIS/include/core_cm4.h"
 816              		.file 13 "../../lib/e-puck2_main-processor/ChibiOS//os/ext/CMSIS/ST/system_stm32f4xx.h"
 817              		.file 14 "../../lib/e-puck2_main-processor/ChibiOS//os/ext/CMSIS/ST/stm32f407xx.h"
 818              		.file 15 "../../lib/e-puck2_main-processor/ChibiOS//os/rt/ports/ARMCMx/chcore.h"
 819              		.file 16 "../../lib/e-puck2_main-processor/ChibiOS//os/rt/ports/ARMCMx/chcore_v7m.h"
 820              		.file 17 "../../lib/e-puck2_main-processor/ChibiOS//os/rt/include/chdebug.h"
 821              		.file 18 "../../lib/e-puck2_main-processor/ChibiOS//os/rt/include/chtm.h"
 822              		.file 19 "../../lib/e-puck2_main-processor/ChibiOS//os/rt/include/chstats.h"
 823              		.file 20 "../../lib/e-puck2_main-processor/ChibiOS//os/rt/include/chsem.h"
 824              		.file 21 "../../lib/e-puck2_main-processor/ChibiOS//os/rt/include/chmtx.h"
 825              		.file 22 "../../lib/e-puck2_main-processor/ChibiOS//os/rt/include/chevents.h"
 826              		.file 23 "../../lib/e-puck2_main-processor/ChibiOS//os/rt/include/chqueues.h"
 827              		.file 24 "../../lib/e-puck2_main-processor/ChibiOS//os/hal/ports/STM32/STM32F4xx/stm32_dma.h"
 828              		.file 25 "../../lib/e-puck2_main-processor/ChibiOS//os/hal/include/hal_ioblock.h"
 829              		.file 26 "../../lib/e-puck2_main-processor/ChibiOS//os/hal/ports/STM32/LLD/GPIOv2/pal_lld.h"
 830              		.file 27 "../../lib/e-puck2_main-processor/ChibiOS//os/hal/include/adc.h"
 831              		.file 28 "../../lib/e-puck2_main-processor/ChibiOS//os/hal/ports/STM32/STM32F4xx/adc_lld.h"
 832              		.file 29 "../../lib/e-puck2_main-processor/ChibiOS//os/hal/include/can.h"
 833              		.file 30 "../../lib/e-puck2_main-processor/ChibiOS//os/hal/ports/STM32/LLD/can_lld.h"
 834              		.file 31 "../../lib/e-puck2_main-processor/ChibiOS//os/hal/include/dac.h"
 835              		.file 32 "../../lib/e-puck2_main-processor/ChibiOS//os/hal/ports/STM32/LLD/DACv1/dac_lld.h"
 836              		.file 33 "../../lib/e-puck2_main-processor/ChibiOS//os/hal/include/ext.h"
 837              		.file 34 "../../lib/e-puck2_main-processor/ChibiOS//os/hal/ports/STM32/LLD/ext_lld.h"
 838              		.file 35 "../../lib/e-puck2_main-processor/ChibiOS//os/hal/include/gpt.h"
 839              		.file 36 "../../lib/e-puck2_main-processor/ChibiOS//os/hal/ports/STM32/LLD/TIMv1/gpt_lld.h"
ARM GAS  /var/folders/cj/4x95q5t97lndwv1w346ymmsw0000gn/T//ccpzDWbM.s 			page 16


 840              		.file 37 "../../lib/e-puck2_main-processor/ChibiOS//os/hal/ports/STM32/LLD/TIMv1/stm32_tim.h"
 841              		.file 38 "../../lib/e-puck2_main-processor/ChibiOS//os/hal/include/i2c.h"
 842              		.file 39 "../../lib/e-puck2_main-processor/ChibiOS//os/hal/ports/STM32/LLD/I2Cv1/i2c_lld.h"
 843              		.file 40 "../../lib/e-puck2_main-processor/ChibiOS//os/hal/include/i2s.h"
 844              		.file 41 "../../lib/e-puck2_main-processor/ChibiOS//os/hal/ports/STM32/LLD/SPIv1/i2s_lld.h"
 845              		.file 42 "../../lib/e-puck2_main-processor/ChibiOS//os/hal/include/pwm.h"
 846              		.file 43 "../../lib/e-puck2_main-processor/ChibiOS//os/hal/ports/STM32/LLD/TIMv1/pwm_lld.h"
 847              		.file 44 "../../lib/e-puck2_main-processor/ChibiOS//os/hal/include/serial.h"
 848              		.file 45 "../../lib/e-puck2_main-processor/ChibiOS//os/hal/ports/STM32/LLD/USARTv1/serial_lld.h"
 849              		.file 46 "../../lib/e-puck2_main-processor/ChibiOS//os/hal/include/sdc.h"
 850              		.file 47 "../../lib/e-puck2_main-processor/ChibiOS//os/hal/ports/STM32/LLD/sdc_lld.h"
 851              		.file 48 "../../lib/e-puck2_main-processor/ChibiOS//os/hal/include/spi.h"
 852              		.file 49 "../../lib/e-puck2_main-processor/ChibiOS//os/hal/ports/STM32/LLD/SPIv1/spi_lld.h"
 853              		.file 50 "../../lib/e-puck2_main-processor/ChibiOS//os/hal/include/usb.h"
 854              		.file 51 "../../lib/e-puck2_main-processor/ChibiOS//os/hal/ports/STM32/LLD/OTGv1/usb_lld.h"
 855              		.file 52 "../../lib/e-puck2_main-processor/ChibiOS//os/hal/ports/STM32/LLD/OTGv1/stm32_otg.h"
 856              		.file 53 "../../lib/e-puck2_main-processor/ChibiOS//os/hal/include/serial_usb.h"
 857              		.file 54 "../../lib/e-puck2_main-processor/src/usbcfg.h"
 858              		.file 55 "../../lib/e-puck2_main-processor/ChibiOS_ext/os/hal/include/../ports/STM32/STM32F4xx/dcm
 859              		.file 56 "../../lib/e-puck2_main-processor/src/camera/po8030.h"
 860              		.file 57 "../../lib/e-puck2_main-processor/src/camera/dcmi_camera.h"
 861              		.file 58 "/Applications/Eclipse_e-puck2.app/Contents/Eclipse_e-puck2/Tools/gcc-arm-none-eabi-7-201
 862              		.file 59 "/Applications/Eclipse_e-puck2.app/Contents/Eclipse_e-puck2/Tools/gcc-arm-none-eabi-7-201
 863              		.file 60 "/Applications/Eclipse_e-puck2.app/Contents/Eclipse_e-puck2/Tools/gcc-arm-none-eabi-7-201
 864              		.file 61 "../../lib/e-puck2_main-processor/src/msgbus/messagebus.h"
 865              		.file 62 "/Applications/Eclipse_e-puck2.app/Contents/Eclipse_e-puck2/Tools/gcc-arm-none-eabi-7-201
 866              		.file 63 "/Applications/Eclipse_e-puck2.app/Contents/Eclipse_e-puck2/Tools/gcc-arm-none-eabi-7-201
 867              		.file 64 "../../lib/e-puck2_main-processor/src/parameter/parameter.h"
 868              		.file 65 "./main.h"
 869              		.file 66 "../../lib/e-puck2_main-processor/ChibiOS//os/rt/include/chthreads.h"
 870              		.file 67 "<built-in>"