ARM GAS  C:\Users\me\AppData\Local\Temp\ccKenzjg.s 			page 1


   1              		.cpu cortex-m4
   2              		.eabi_attribute 27, 1
   3              		.eabi_attribute 28, 1
   4              		.eabi_attribute 20, 1
   5              		.eabi_attribute 21, 1
   6              		.eabi_attribute 23, 3
   7              		.eabi_attribute 24, 1
   8              		.eabi_attribute 25, 1
   9              		.eabi_attribute 26, 1
  10              		.eabi_attribute 30, 2
  11              		.eabi_attribute 34, 1
  12              		.eabi_attribute 18, 4
  13              		.file	"main.c"
  14              		.text
  15              	.Ltext0:
  16              		.cfi_sections	.debug_frame
  17              		.section	.text.ThdBodyLed,"ax",%progbits
  18              		.align	1
  19              		.p2align 4,,15
  20              		.syntax unified
  21              		.thumb
  22              		.thumb_func
  23              		.fpu fpv4-sp-d16
  24              		.type	ThdBodyLed, %function
  25              	ThdBodyLed:
  26              	.LFB261:
  27              		.file 1 "main.c"
  28              		.loc 1 75 0
  29              		.cfi_startproc
  30              		@ Volatile: function does not return.
  31              		@ args = 0, pretend = 0, frame = 0
  32              		@ frame_needed = 0, uses_anonymous_args = 0
  33              	.LVL0:
  34 0000 08B5     		push	{r3, lr}
  35              		.cfi_def_cfa_offset 8
  36              		.cfi_offset 3, -8
  37              		.cfi_offset 14, -4
  38              	.LBB42:
  39              	.LBB43:
  40              		.file 2 "../../lib/ChibiOS/os/rt/include/chregistry.h"
  41              		.loc 2 135 0
  42 0002 074B     		ldr	r3, .L5
  43 0004 074A     		ldr	r2, .L5+4
  44 0006 9B69     		ldr	r3, [r3, #24]
  45              	.LBE43:
  46              	.LBE42:
  47              		.loc 1 81 0
  48 0008 074C     		ldr	r4, .L5+8
  49              	.LBB45:
  50              	.LBB44:
  51              		.loc 2 135 0
  52 000a 9A61     		str	r2, [r3, #24]
  53              	.LVL1:
  54              	.L2:
  55              	.LBE44:
  56              	.LBE45:
  57              		.loc 1 81 0 discriminator 1
ARM GAS  C:\Users\me\AppData\Local\Temp\ccKenzjg.s 			page 2


  58 000c 6369     		ldr	r3, [r4, #20]
  59 000e 83F00403 		eor	r3, r3, #4
  60 0012 6361     		str	r3, [r4, #20]
  61              		.loc 1 86 0 discriminator 1
  62 0014 4FF4FA70 		mov	r0, #500
  63 0018 FFF7FEFF 		bl	chThdSleep
  64              	.LVL2:
  65 001c F6E7     		b	.L2
  66              	.L6:
  67 001e 00BF     		.align	2
  68              	.L5:
  69 0020 00000000 		.word	ch
  70 0024 00000000 		.word	.LANCHOR0
  71 0028 00040240 		.word	1073873920
  72              		.cfi_endproc
  73              	.LFE261:
  74              		.size	ThdBodyLed, .-ThdBodyLed
  75              		.section	.text.chprintf.constprop.0,"ax",%progbits
  76              		.align	1
  77              		.p2align 4,,15
  78              		.syntax unified
  79              		.thumb
  80              		.thumb_func
  81              		.fpu fpv4-sp-d16
  82              		.type	chprintf.constprop.0, %function
  83              	chprintf.constprop.0:
  84              	.LFB264:
  85              		.file 3 "../../lib/ChibiOS/os/hal/lib/streams/chprintf.h"
  86              		.loc 3 69 0
  87              		.cfi_startproc
  88              		@ args = 4, pretend = 12, frame = 8
  89              		@ frame_needed = 0, uses_anonymous_args = 1
  90              	.LVL3:
  91 0000 0EB4     		push	{r1, r2, r3}
  92              		.cfi_def_cfa_offset 12
  93              		.cfi_offset 1, -12
  94              		.cfi_offset 2, -8
  95              		.cfi_offset 3, -4
  96 0002 00B5     		push	{lr}
  97              		.cfi_def_cfa_offset 16
  98              		.cfi_offset 14, -16
  99 0004 82B0     		sub	sp, sp, #8
 100              		.cfi_def_cfa_offset 24
 101              		.loc 3 69 0
 102 0006 03AA     		add	r2, sp, #12
 103              		.loc 3 74 0
 104 0008 0548     		ldr	r0, .L9
 105              	.LVL4:
 106              		.loc 3 69 0
 107 000a 52F8041B 		ldr	r1, [r2], #4
 108              		.loc 3 73 0
 109 000e 0192     		str	r2, [sp, #4]
 110              		.loc 3 74 0
 111 0010 FFF7FEFF 		bl	chvprintf
 112              	.LVL5:
 113              		.loc 3 78 0
 114 0014 02B0     		add	sp, sp, #8
ARM GAS  C:\Users\me\AppData\Local\Temp\ccKenzjg.s 			page 3


 115              		.cfi_def_cfa_offset 16
 116              		@ sp needed
 117 0016 5DF804EB 		ldr	lr, [sp], #4
 118              		.cfi_restore 14
 119              		.cfi_def_cfa_offset 12
 120 001a 03B0     		add	sp, sp, #12
 121              		.cfi_restore 3
 122              		.cfi_restore 2
 123              		.cfi_restore 1
 124              		.cfi_def_cfa_offset 0
 125 001c 7047     		bx	lr
 126              	.L10:
 127 001e 00BF     		.align	2
 128              	.L9:
 129 0020 00000000 		.word	SD3
 130              		.cfi_endproc
 131              	.LFE264:
 132              		.size	chprintf.constprop.0, .-chprintf.constprop.0
 133              		.section	.text.ThdFrontLed,"ax",%progbits
 134              		.align	1
 135              		.p2align 4,,15
 136              		.syntax unified
 137              		.thumb
 138              		.thumb_func
 139              		.fpu fpv4-sp-d16
 140              		.type	ThdFrontLed, %function
 141              	ThdFrontLed:
 142              	.LFB260:
 143              		.loc 1 60 0
 144              		.cfi_startproc
 145              		@ args = 0, pretend = 0, frame = 0
 146              		@ frame_needed = 0, uses_anonymous_args = 0
 147              	.LVL6:
 148 0000 2DE9F041 		push	{r4, r5, r6, r7, r8, lr}
 149              		.cfi_def_cfa_offset 24
 150              		.cfi_offset 4, -24
 151              		.cfi_offset 5, -20
 152              		.cfi_offset 6, -16
 153              		.cfi_offset 7, -12
 154              		.cfi_offset 8, -8
 155              		.cfi_offset 14, -4
 156              	.LBB62:
 157              	.LBB63:
 158              		.loc 2 135 0
 159 0004 154C     		ldr	r4, .L15
 160 0006 164A     		ldr	r2, .L15+4
 161 0008 A369     		ldr	r3, [r4, #24]
 162              	.LBE63:
 163              	.LBE62:
 164              	.LBB65:
 165              	.LBB66:
 166              	.LBB67:
 167              	.LBB68:
 168              		.file 4 "../../lib/ChibiOS/os/rt/include/chsys.h"
 169              		.loc 4 367 0
 170 000a DFF85C80 		ldr	r8, .L15+12
 171              	.LBE68:
ARM GAS  C:\Users\me\AppData\Local\Temp\ccKenzjg.s 			page 4


 172              	.LBE67:
 173              	.LBE66:
 174              	.LBE65:
 175              		.loc 1 69 0
 176 000e 154E     		ldr	r6, .L15+8
 177              	.LBB82:
 178              	.LBB64:
 179              		.loc 2 135 0
 180 0010 9A61     		str	r2, [r3, #24]
 181              	.LBE64:
 182              	.LBE82:
 183              	.LBB83:
 184              	.LBB81:
 185              	.LBB73:
 186              	.LBB74:
 187              	.LBB75:
 188              	.LBB76:
 189              	.LBB77:
 190              		.file 5 "../../lib/ChibiOS/os/ext/CMSIS/include/core_cmFunc.h"
 191              		.loc 5 546 0
 192 0012 2027     		movs	r7, #32
 193              	.LVL7:
 194              	.L13:
 195              		.loc 5 546 0 is_stmt 0 discriminator 1
 196              		.syntax unified
 197              	@ 546 "../../lib/ChibiOS/os/ext/CMSIS/include/core_cmFunc.h" 1
 198 0014 87F31188 		MSR basepri, r7
 199              	@ 0 "" 2
 200              	.LVL8:
 201              		.thumb
 202              		.syntax unified
 203              	.LBE77:
 204              	.LBE76:
 205              	.LBE75:
 206              		.loc 4 349 0 is_stmt 1 discriminator 1
 207 0018 FFF7FEFF 		bl	_stats_start_measure_crit_thd
 208              	.LVL9:
 209              		.loc 4 350 0 discriminator 1
 210 001c FFF7FEFF 		bl	_dbg_check_lock
 211              	.LVL10:
 212              	.LBE74:
 213              	.LBE73:
 214              	.LBB78:
 215              	.LBB79:
 216              		.file 6 "../../lib/ChibiOS/os/rt/include/chvt.h"
 217              		.loc 6 231 0 discriminator 1
 218 0020 A56A     		ldr	r5, [r4, #40]
 219              	.LBE79:
 220              	.LBE78:
 221              	.LBB80:
 222              	.LBB72:
 223              		.loc 4 360 0 discriminator 1
 224 0022 FFF7FEFF 		bl	_dbg_check_unlock
 225              	.LVL11:
 226              		.loc 4 361 0 discriminator 1
 227 0026 FFF7FEFF 		bl	_stats_stop_measure_crit_thd
 228              	.LVL12:
ARM GAS  C:\Users\me\AppData\Local\Temp\ccKenzjg.s 			page 5


 229              		.loc 4 367 0 discriminator 1
 230 002a 2368     		ldr	r3, [r4]
 231 002c A342     		cmp	r3, r4
 232 002e 07D0     		beq	.L12
 233              		.loc 4 367 0 is_stmt 0
 234 0030 A269     		ldr	r2, [r4, #24]
 235 0032 9B68     		ldr	r3, [r3, #8]
 236 0034 9268     		ldr	r2, [r2, #8]
 237 0036 9A42     		cmp	r2, r3
 238 0038 02D2     		bcs	.L12
 239 003a 4046     		mov	r0, r8
 240 003c FFF7FEFF 		bl	chSysHalt
 241              	.LVL13:
 242              	.L12:
 243              	.LBB69:
 244              	.LBB70:
 245              	.LBB71:
 246              		.loc 5 546 0 is_stmt 1
 247 0040 0023     		movs	r3, #0
 248              		.syntax unified
 249              	@ 546 "../../lib/ChibiOS/os/ext/CMSIS/include/core_cmFunc.h" 1
 250 0042 83F31188 		MSR basepri, r3
 251              	@ 0 "" 2
 252              	.LVL14:
 253              		.thumb
 254              		.syntax unified
 255              	.LBE71:
 256              	.LBE70:
 257              	.LBE69:
 258              	.LBE72:
 259              	.LBE80:
 260              	.LBE81:
 261              	.LBE83:
 262              		.loc 1 69 0
 263 0046 7369     		ldr	r3, [r6, #20]
 264 0048 83F48043 		eor	r3, r3, #16384
 265 004c 7361     		str	r3, [r6, #20]
 266              		.loc 1 70 0
 267 004e 05F5FA71 		add	r1, r5, #500
 268 0052 2846     		mov	r0, r5
 269 0054 FFF7FEFF 		bl	chThdSleepUntilWindowed
 270              	.LVL15:
 271 0058 DCE7     		b	.L13
 272              	.L16:
 273 005a 00BF     		.align	2
 274              	.L15:
 275 005c 00000000 		.word	ch
 276 0060 00000000 		.word	.LANCHOR1
 277 0064 000C0240 		.word	1073875968
 278 0068 00000000 		.word	.LANCHOR2
 279              		.cfi_endproc
 280              	.LFE260:
 281              		.size	ThdFrontLed, .-ThdFrontLed
 282              		.section	.text.panic_handler,"ax",%progbits
 283              		.align	1
 284              		.p2align 4,,15
 285              		.global	panic_handler
ARM GAS  C:\Users\me\AppData\Local\Temp\ccKenzjg.s 			page 6


 286              		.syntax unified
 287              		.thumb
 288              		.thumb_func
 289              		.fpu fpv4-sp-d16
 290              		.type	panic_handler, %function
 291              	panic_handler:
 292              	.LFB257:
 293              		.loc 1 16 0
 294              		.cfi_startproc
 295              		@ Volatile: function does not return.
 296              		@ args = 0, pretend = 0, frame = 0
 297              		@ frame_needed = 0, uses_anonymous_args = 0
 298              		@ link register save eliminated.
 299              	.LVL16:
 300              		.loc 1 19 0
 301 0000 084B     		ldr	r3, .L19
 302              		.loc 1 24 0
 303 0002 094A     		ldr	r2, .L19+4
 304              		.loc 1 19 0
 305 0004 2020     		movs	r0, #32
 306              	.LVL17:
 307              		.loc 1 20 0
 308 0006 4021     		movs	r1, #64
 309              		.loc 1 19 0
 310 0008 5883     		strh	r0, [r3, #26]	@ movhi
 311              		.loc 1 21 0
 312 000a 4FF48065 		mov	r5, #1024
 313              		.loc 1 20 0
 314 000e 5983     		strh	r1, [r3, #26]	@ movhi
 315              		.loc 1 22 0
 316 0010 4FF40064 		mov	r4, #2048
 317              		.loc 1 23 0
 318 0014 4FF48040 		mov	r0, #16384
 319              		.loc 1 24 0
 320 0018 0421     		movs	r1, #4
 321              		.loc 1 21 0
 322 001a 5D83     		strh	r5, [r3, #26]	@ movhi
 323              		.loc 1 22 0
 324 001c 5C83     		strh	r4, [r3, #26]	@ movhi
 325              		.loc 1 23 0
 326 001e 5883     		strh	r0, [r3, #26]	@ movhi
 327              		.loc 1 24 0
 328 0020 5183     		strh	r1, [r2, #26]	@ movhi
 329              	.L18:
 330 0022 FEE7     		b	.L18
 331              	.L20:
 332              		.align	2
 333              	.L19:
 334 0024 000C0240 		.word	1073875968
 335 0028 00040240 		.word	1073873920
 336              		.cfi_endproc
 337              	.LFE257:
 338              		.size	panic_handler, .-panic_handler
 339              		.global	__aeabi_f2d
 340              		.global	__aeabi_d2f
 341              		.section	.text.show_gravity,"ax",%progbits
 342              		.align	1
ARM GAS  C:\Users\me\AppData\Local\Temp\ccKenzjg.s 			page 7


 343              		.p2align 4,,15
 344              		.global	show_gravity
 345              		.syntax unified
 346              		.thumb
 347              		.thumb_func
 348              		.fpu fpv4-sp-d16
 349              		.type	show_gravity, %function
 350              	show_gravity:
 351              	.LFB262:
 352              		.loc 1 110 0
 353              		.cfi_startproc
 354              		@ args = 0, pretend = 0, frame = 16
 355              		@ frame_needed = 0, uses_anonymous_args = 0
 356              	.LVL18:
 357 0000 30B5     		push	{r4, r5, lr}
 358              		.cfi_def_cfa_offset 12
 359              		.cfi_offset 4, -12
 360              		.cfi_offset 5, -8
 361              		.cfi_offset 14, -4
 362              		.loc 1 150 0
 363 0002 D0ED007A 		vldr.32	s15, [r0]
 364 0006 9FED737A 		vldr.32	s14, .L57
 365              		.loc 1 110 0
 366 000a 2DED028B 		vpush.64	{d8}
 367              		.cfi_def_cfa_offset 20
 368              		.cfi_offset 80, -20
 369              		.cfi_offset 81, -16
 370              		.loc 1 150 0
 371 000e F0EEE77A 		vabs.f32	s15, s15
 372              		.loc 1 110 0
 373 0012 85B0     		sub	sp, sp, #20
 374              		.cfi_def_cfa_offset 40
 375              		.loc 1 150 0
 376 0014 F4EEC77A 		vcmpe.f32	s15, s14
 377              		.loc 1 128 0
 378 0018 0023     		movs	r3, #0
 379              		.loc 1 150 0
 380 001a F1EE10FA 		vmrs	APSR_nzcv, FPSCR
 381              		.loc 1 110 0
 382 001e 0446     		mov	r4, r0
 383              	.LVL19:
 384              		.loc 1 128 0
 385 0020 ADF80E30 		strh	r3, [sp, #14]	@ movhi
 386              		.loc 1 150 0
 387 0024 09DC     		bgt	.L22
 388              		.loc 1 150 0 is_stmt 0 discriminator 1
 389 0026 D0ED017A 		vldr.32	s15, [r0, #4]
 390 002a F0EEE77A 		vabs.f32	s15, s15
 391 002e F4EEC77A 		vcmpe.f32	s15, s14
 392 0032 F1EE10FA 		vmrs	APSR_nzcv, FPSCR
 393 0036 40F38D80 		ble	.L23
 394              	.L22:
 395              	.LVL20:
 396              	.LBB95:
 397              	.LBB96:
 398              	.LBB97:
 399              	.LBB98:
ARM GAS  C:\Users\me\AppData\Local\Temp\ccKenzjg.s 			page 8


 400              	.LBB99:
 401              	.LBB100:
 402              		.loc 5 546 0 is_stmt 1
 403 003a 2023     		movs	r3, #32
 404              		.syntax unified
 405              	@ 546 "../../lib/ChibiOS/os/ext/CMSIS/include/core_cmFunc.h" 1
 406 003c 83F31188 		MSR basepri, r3
 407              	@ 0 "" 2
 408              	.LVL21:
 409              		.thumb
 410              		.syntax unified
 411              	.LBE100:
 412              	.LBE99:
 413              	.LBE98:
 414              	.LBE97:
 415              	.LBE96:
 416              		.loc 1 154 0
 417 0040 654D     		ldr	r5, .L57+4
 418              	.LBB102:
 419              	.LBB101:
 420              		.loc 4 349 0
 421 0042 FFF7FEFF 		bl	_stats_start_measure_crit_thd
 422              	.LVL22:
 423              		.loc 4 350 0
 424 0046 FFF7FEFF 		bl	_dbg_check_lock
 425              	.LVL23:
 426              	.LBE101:
 427              	.LBE102:
 428              		.loc 1 154 0
 429 004a EB68     		ldr	r3, [r5, #12]
 430              		.loc 1 156 0
 431 004c 6068     		ldr	r0, [r4, #4]	@ float
 432              		.loc 1 154 0
 433 004e 0022     		movs	r2, #0
 434 0050 5A62     		str	r2, [r3, #36]
 435              		.loc 1 156 0
 436 0052 FFF7FEFF 		bl	__aeabi_f2d
 437              	.LVL24:
 438 0056 CDE90001 		strd	r0, [sp]
 439 005a 2068     		ldr	r0, [r4]	@ float
 440 005c FFF7FEFF 		bl	__aeabi_f2d
 441              	.LVL25:
 442 0060 9DED001B 		vldr.64	d1, [sp]
 443 0064 41EC100B 		vmov	d0, r0, r1
 444 0068 FFF7FEFF 		bl	atan2
 445              	.LVL26:
 446 006c 51EC100B 		vmov	r0, r1, d0
 447 0070 FFF7FEFF 		bl	__aeabi_d2f
 448              	.LVL27:
 449              		.loc 1 158 0
 450 0074 EB68     		ldr	r3, [r5, #12]
 451 0076 5B6A     		ldr	r3, [r3, #36]
 452 0078 9BB2     		uxth	r3, r3
 453 007a ADF80E30 		strh	r3, [sp, #14]	@ movhi
 454              		.loc 1 156 0
 455 007e 08EE100A 		vmov	s16, r0
 456              	.LVL28:
ARM GAS  C:\Users\me\AppData\Local\Temp\ccKenzjg.s 			page 9


 457              	.LBB103:
 458              	.LBB104:
 459              		.loc 4 360 0
 460 0082 FFF7FEFF 		bl	_dbg_check_unlock
 461              	.LVL29:
 462              		.loc 4 361 0
 463 0086 FFF7FEFF 		bl	_stats_stop_measure_crit_thd
 464              	.LVL30:
 465              		.loc 4 367 0
 466 008a 544B     		ldr	r3, .L57+8
 467 008c 1A68     		ldr	r2, [r3]
 468 008e 9A42     		cmp	r2, r3
 469 0090 04D0     		beq	.L25
 470 0092 9969     		ldr	r1, [r3, #24]
 471 0094 9368     		ldr	r3, [r2, #8]
 472 0096 8A68     		ldr	r2, [r1, #8]
 473 0098 9A42     		cmp	r2, r3
 474 009a 5ED3     		bcc	.L53
 475              	.L25:
 476              	.LVL31:
 477              	.LBB105:
 478              	.LBB106:
 479              	.LBB107:
 480              		.loc 5 546 0
 481 009c 0023     		movs	r3, #0
 482              		.syntax unified
 483              	@ 546 "../../lib/ChibiOS/os/ext/CMSIS/include/core_cmFunc.h" 1
 484 009e 83F31188 		MSR basepri, r3
 485              	@ 0 "" 2
 486              	.LVL32:
 487              		.thumb
 488              		.syntax unified
 489              	.LBE107:
 490              	.LBE106:
 491              	.LBE105:
 492              	.LBE104:
 493              	.LBE103:
 494              		.loc 1 162 0
 495 00a2 9FED4F7A 		vldr.32	s14, .L57+12
 496              		.loc 1 166 0
 497 00a6 DFED4F7A 		vldr.32	s15, .L57+16
 498              		.loc 1 162 0
 499 00aa 38EE078A 		vadd.f32	s16, s16, s14
 500              	.LVL33:
 501              		.loc 1 166 0
 502 00ae B4EEE78A 		vcmpe.f32	s16, s15
 503 00b2 F1EE10FA 		vmrs	APSR_nzcv, FPSCR
 504              		.loc 1 167 0
 505 00b6 C4BF     		itt	gt
 506 00b8 DFED4B7A 		vldrgt.32	s15, .L57+20
 507 00bc 38EE678A 		vsubgt.f32	s16, s16, s15
 508              	.LVL34:
 509              		.loc 1 170 0
 510 00c0 B5EEC08A 		vcmpe.f32	s16, #0
 511 00c4 F1EE10FA 		vmrs	APSR_nzcv, FPSCR
 512 00c8 28DB     		blt	.L28
 513              		.loc 1 170 0 is_stmt 0 discriminator 1
ARM GAS  C:\Users\me\AppData\Local\Temp\ccKenzjg.s 			page 10


 514 00ca DFED487A 		vldr.32	s15, .L57+24
 515 00ce B4EEE78A 		vcmpe.f32	s16, s15
 516 00d2 F1EE10FA 		vmrs	APSR_nzcv, FPSCR
 517 00d6 21D5     		bpl	.L28
 518              	.LBE95:
 519              		.loc 1 115 0 is_stmt 1
 520 00d8 0024     		movs	r4, #0
 521              	.LVL35:
 522              	.LBB110:
 523              		.loc 1 171 0
 524 00da 0125     		movs	r5, #1
 525              	.LVL36:
 526              	.L30:
 527              	.LBE110:
 528              		.loc 1 226 0
 529 00dc BDF80E20 		ldrh	r2, [sp, #14]
 530 00e0 4349     		ldr	r1, .L57+28
 531 00e2 4448     		ldr	r0, .L57+32
 532 00e4 FFF7FEFF 		bl	chprintf.constprop.0
 533              	.LVL37:
 534              		.loc 1 228 0
 535 00e8 434B     		ldr	r3, .L57+36
 536 00ea 2021     		movs	r1, #32
 537              		.loc 1 230 0
 538 00ec 002D     		cmp	r5, #0
 539              		.loc 1 229 0
 540 00ee 4FF04002 		mov	r2, #64
 541              		.loc 1 228 0
 542 00f2 9961     		str	r1, [r3, #24]
 543              		.loc 1 230 0
 544 00f4 0CBF     		ite	eq
 545 00f6 4FF48061 		moveq	r1, #1024
 546 00fa 4FF08061 		movne	r1, #67108864
 547              		.loc 1 229 0
 548 00fe 9A61     		str	r2, [r3, #24]
 549              	.LVL38:
 550              	.L40:
 551              		.loc 1 230 0 discriminator 8
 552 0100 3D4A     		ldr	r2, .L57+36
 553              		.loc 1 231 0 discriminator 8
 554 0102 002C     		cmp	r4, #0
 555 0104 14BF     		ite	ne
 556 0106 4FF00063 		movne	r3, #134217728
 557 010a 4FF40063 		moveq	r3, #2048
 558              		.loc 1 230 0 discriminator 8
 559 010e 9161     		str	r1, [r2, #24]
 560              	.LVL39:
 561              	.L39:
 562              		.loc 1 231 0 discriminator 8
 563 0110 394A     		ldr	r2, .L57+36
 564 0112 9361     		str	r3, [r2, #24]
 565              		.loc 1 232 0 discriminator 8
 566 0114 05B0     		add	sp, sp, #20
 567              		.cfi_remember_state
 568              		.cfi_def_cfa_offset 20
 569              		@ sp needed
 570 0116 BDEC028B 		vldm	sp!, {d8}
ARM GAS  C:\Users\me\AppData\Local\Temp\ccKenzjg.s 			page 11


 571              		.cfi_restore 80
 572              		.cfi_restore 81
 573              		.cfi_def_cfa_offset 12
 574 011a 30BD     		pop	{r4, r5, pc}
 575              	.LVL40:
 576              	.L28:
 577              		.cfi_restore_state
 578              	.LBB111:
 579              		.loc 1 172 0
 580 011c DFED337A 		vldr.32	s15, .L57+24
 581 0120 B4EEE78A 		vcmpe.f32	s16, s15
 582 0124 F1EE10FA 		vmrs	APSR_nzcv, FPSCR
 583 0128 06DB     		blt	.L31
 584              		.loc 1 172 0 is_stmt 0 discriminator 1
 585 012a DFED2E7A 		vldr.32	s15, .L57+16
 586 012e B4EEE78A 		vcmpe.f32	s16, s15
 587 0132 F1EE10FA 		vmrs	APSR_nzcv, FPSCR
 588 0136 41D4     		bmi	.L42
 589              	.L31:
 590              		.loc 1 174 0 is_stmt 1
 591 0138 DFED307A 		vldr.32	s15, .L57+40
 592 013c B4EEE78A 		vcmpe.f32	s16, s15
 593 0140 F1EE10FA 		vmrs	APSR_nzcv, FPSCR
 594 0144 0DDA     		bge	.L54
 595              	.L33:
 596              		.loc 1 176 0
 597 0146 DFED2E7A 		vldr.32	s15, .L57+44
 598 014a B4EEE78A 		vcmpe.f32	s16, s15
 599 014e F1EE10FA 		vmrs	APSR_nzcv, FPSCR
 600 0152 1FDA     		bge	.L55
 601              	.LVL41:
 602              	.L23:
 603              	.LBE111:
 604              		.loc 1 115 0
 605 0154 0024     		movs	r4, #0
 606              	.LVL42:
 607 0156 2546     		mov	r5, r4
 608 0158 C0E7     		b	.L30
 609              	.LVL43:
 610              	.L53:
 611              	.LBB112:
 612              	.LBB109:
 613              	.LBB108:
 614              		.loc 4 367 0
 615 015a 2A48     		ldr	r0, .L57+48
 616 015c FFF7FEFF 		bl	chSysHalt
 617              	.LVL44:
 618 0160 9CE7     		b	.L25
 619              	.L54:
 620              	.LBE108:
 621              	.LBE109:
 622              		.loc 1 174 0 discriminator 1
 623 0162 DFED277A 		vldr.32	s15, .L57+44
 624 0166 B4EEE78A 		vcmpe.f32	s16, s15
 625 016a F1EE10FA 		vmrs	APSR_nzcv, FPSCR
 626 016e EAD5     		bpl	.L33
 627              	.LVL45:
ARM GAS  C:\Users\me\AppData\Local\Temp\ccKenzjg.s 			page 12


 628              	.LBE112:
 629              		.loc 1 226 0
 630 0170 BDF80E20 		ldrh	r2, [sp, #14]
 631 0174 1E49     		ldr	r1, .L57+28
 632 0176 1F48     		ldr	r0, .L57+32
 633 0178 FFF7FEFF 		bl	chprintf.constprop.0
 634              	.LVL46:
 635              		.loc 1 228 0
 636 017c 1E4A     		ldr	r2, .L57+36
 637 017e 4FF40013 		mov	r3, #2097152
 638              		.loc 1 229 0
 639 0182 4020     		movs	r0, #64
 640              		.loc 1 230 0
 641 0184 4FF48061 		mov	r1, #1024
 642              		.loc 1 228 0
 643 0188 9361     		str	r3, [r2, #24]
 644              		.loc 1 229 0
 645 018a 9061     		str	r0, [r2, #24]
 646              		.loc 1 230 0
 647 018c 4FF40063 		mov	r3, #2048
 648 0190 9161     		str	r1, [r2, #24]
 649 0192 BDE7     		b	.L39
 650              	.LVL47:
 651              	.L55:
 652              		.loc 1 226 0 discriminator 1
 653 0194 BDF80E20 		ldrh	r2, [sp, #14]
 654 0198 1549     		ldr	r1, .L57+28
 655 019a 1648     		ldr	r0, .L57+32
 656 019c FFF7FEFF 		bl	chprintf.constprop.0
 657              	.LVL48:
 658              		.loc 1 228 0 discriminator 1
 659 01a0 154A     		ldr	r2, .L57+36
 660              		.loc 1 229 0 discriminator 1
 661 01a2 B5EEC08A 		vcmpe.f32	s16, #0
 662              		.loc 1 228 0 discriminator 1
 663 01a6 2023     		movs	r3, #32
 664              		.loc 1 229 0 discriminator 1
 665 01a8 F1EE10FA 		vmrs	APSR_nzcv, FPSCR
 666              		.loc 1 228 0 discriminator 1
 667 01ac 9361     		str	r3, [r2, #24]
 668              		.loc 1 229 0 discriminator 1
 669 01ae 08D4     		bmi	.L56
 670              		.loc 1 229 0 is_stmt 0
 671 01b0 4023     		movs	r3, #64
 672 01b2 9361     		str	r3, [r2, #24]
 673              		.loc 1 115 0 is_stmt 1
 674 01b4 0024     		movs	r4, #0
 675              	.LVL49:
 676              		.loc 1 229 0
 677 01b6 4FF48061 		mov	r1, #1024
 678 01ba A1E7     		b	.L40
 679              	.LVL50:
 680              	.L42:
 681              	.LBB113:
 682              		.loc 1 173 0
 683 01bc 0124     		movs	r4, #1
 684              	.LVL51:
ARM GAS  C:\Users\me\AppData\Local\Temp\ccKenzjg.s 			page 13


 685              	.LBE113:
 686              		.loc 1 115 0
 687 01be 0025     		movs	r5, #0
 688 01c0 8CE7     		b	.L30
 689              	.LVL52:
 690              	.L56:
 691              		.loc 1 229 0
 692 01c2 4FF48003 		mov	r3, #4194304
 693              		.loc 1 230 0
 694 01c6 4FF48061 		mov	r1, #1024
 695              		.loc 1 229 0
 696 01ca 9361     		str	r3, [r2, #24]
 697              		.loc 1 230 0
 698 01cc 4FF40063 		mov	r3, #2048
 699 01d0 9161     		str	r1, [r2, #24]
 700 01d2 9DE7     		b	.L39
 701              	.L58:
 702              		.align	2
 703              	.L57:
 704 01d4 CDCC4C3E 		.word	1045220557
 705 01d8 00000000 		.word	GPTD11
 706 01dc 00000000 		.word	ch
 707 01e0 DB0F493F 		.word	1061752795
 708 01e4 DB0F4940 		.word	1078530011
 709 01e8 DB0FC940 		.word	1086918619
 710 01ec DB0FC93F 		.word	1070141403
 711 01f0 00000000 		.word	.LC0
 712 01f4 00000000 		.word	SD3
 713 01f8 000C0240 		.word	1073875968
 714 01fc DB0F49C0 		.word	-1068953637
 715 0200 DB0FC9BF 		.word	-1077342245
 716 0204 00000000 		.word	.LANCHOR2
 717              		.cfi_endproc
 718              	.LFE262:
 719              		.size	show_gravity, .-show_gravity
 720              		.section	.text.startup.main,"ax",%progbits
 721              		.align	1
 722              		.p2align 4,,15
 723              		.global	main
 724              		.syntax unified
 725              		.thumb
 726              		.thumb_func
 727              		.fpu fpv4-sp-d16
 728              		.type	main, %function
 729              	main:
 730              	.LFB263:
 731              		.loc 1 235 0
 732              		.cfi_startproc
 733              		@ args = 0, pretend = 0, frame = 80
 734              		@ frame_needed = 0, uses_anonymous_args = 0
 735 0000 2DE9F04F 		push	{r4, r5, r6, r7, r8, r9, r10, fp, lr}
 736              		.cfi_def_cfa_offset 36
 737              		.cfi_offset 4, -36
 738              		.cfi_offset 5, -32
 739              		.cfi_offset 6, -28
 740              		.cfi_offset 7, -24
 741              		.cfi_offset 8, -20
ARM GAS  C:\Users\me\AppData\Local\Temp\ccKenzjg.s 			page 14


 742              		.cfi_offset 9, -16
 743              		.cfi_offset 10, -12
 744              		.cfi_offset 11, -8
 745              		.cfi_offset 14, -4
 746 0004 A1B0     		sub	sp, sp, #132
 747              		.cfi_def_cfa_offset 168
 748              		.loc 1 237 0
 749 0006 FFF7FEFF 		bl	halInit
 750              	.LVL53:
 751              		.loc 1 238 0
 752 000a FFF7FEFF 		bl	chSysInit
 753              	.LVL54:
 754              	.LBB118:
 755              	.LBB119:
 756              		.loc 1 40 0
 757 000e 5449     		ldr	r1, .L62
 758 0010 5448     		ldr	r0, .L62+4
 759              	.LBE119:
 760              	.LBE118:
 761              		.loc 1 268 0
 762 0012 554D     		ldr	r5, .L62+8
 763              		.loc 1 282 0
 764 0014 DFF87C91 		ldr	r9, .L62+52
 765              	.LBB121:
 766              	.LBB120:
 767              		.loc 1 40 0
 768 0018 FFF7FEFF 		bl	sdStart
 769              	.LVL55:
 770              	.LBE120:
 771              	.LBE121:
 772              	.LBB122:
 773              	.LBB123:
 774              		.loc 1 54 0
 775 001c 5349     		ldr	r1, .L62+12
 776 001e 5448     		ldr	r0, .L62+16
 777 0020 FFF7FEFF 		bl	gptStart
 778              	.LVL56:
 779              		.loc 1 56 0
 780 0024 4FF6FF71 		movw	r1, #65535
 781 0028 5148     		ldr	r0, .L62+16
 782 002a FFF7FEFF 		bl	gptStartContinuous
 783              	.LVL57:
 784              	.LBE123:
 785              	.LBE122:
 786              		.loc 1 251 0
 787 002e 0024     		movs	r4, #0
 788              		.loc 1 241 0
 789 0030 FFF7FEFF 		bl	i2c_start
 790              	.LVL58:
 791              		.loc 1 242 0
 792 0034 FFF7FEFF 		bl	imu_start
 793              	.LVL59:
 794              		.loc 1 245 0
 795 0038 4E4A     		ldr	r2, .L62+20
 796 003a 4F49     		ldr	r1, .L62+24
 797 003c 4F48     		ldr	r0, .L62+28
 798 003e FFF7FEFF 		bl	messagebus_init
ARM GAS  C:\Users\me\AppData\Local\Temp\ccKenzjg.s 			page 15


 799              	.LVL60:
 800              		.loc 1 251 0
 801 0042 0094     		str	r4, [sp]
 802 0044 4E4B     		ldr	r3, .L62+32
 803 0046 4F48     		ldr	r0, .L62+36
 804 0048 4022     		movs	r2, #64
 805 004a 4FF4FC71 		mov	r1, #504
 806 004e FFF7FEFF 		bl	chThdCreateStatic
 807              	.LVL61:
 808              		.loc 1 252 0
 809 0052 4D4B     		ldr	r3, .L62+40
 810 0054 0094     		str	r4, [sp]
 811 0056 4022     		movs	r2, #64
 812 0058 4FF4FC71 		mov	r1, #504
 813 005c 4B48     		ldr	r0, .L62+44
 814              		.loc 1 268 0
 815 005e 414C     		ldr	r4, .L62+4
 816              		.loc 1 252 0
 817 0060 FFF7FEFF 		bl	chThdCreateStatic
 818              	.LVL62:
 819              		.loc 1 257 0
 820 0064 4A49     		ldr	r1, .L62+48
 821 0066 4548     		ldr	r0, .L62+28
 822 0068 FFF7FEFF 		bl	messagebus_find_topic_blocking
 823              	.LVL63:
 824 006c 8046     		mov	r8, r0
 825              	.LVL64:
 826              		.loc 1 261 0
 827 006e 4FF4FA60 		mov	r0, #2000
 828              	.LVL65:
 829 0072 FFF7FEFF 		bl	chThdSleep
 830              	.LVL66:
 831              		.loc 1 262 0
 832 0076 4046     		mov	r0, r8
 833 0078 C821     		movs	r1, #200
 834 007a FFF7FEFF 		bl	imu_compute_offset
 835              	.LVL67:
 836              	.L60:
 837              		.loc 1 266 0 discriminator 1
 838 007e 0CA9     		add	r1, sp, #48
 839 0080 4046     		mov	r0, r8
 840 0082 5022     		movs	r2, #80
 841 0084 FFF7FEFF 		bl	messagebus_topic_wait
 842              	.LVL68:
 843              		.loc 1 268 0 discriminator 1
 844 0088 BDF96270 		ldrsh	r7, [sp, #98]
 845 008c BDF96060 		ldrsh	r6, [sp, #96]
 846 0090 BDF95E00 		ldrsh	r0, [sp, #94]
 847 0094 BDF95C10 		ldrsh	r1, [sp, #92]
 848 0098 BDF95A30 		ldrsh	r3, [sp, #90]
 849 009c BDF95820 		ldrsh	r2, [sp, #88]
 850 00a0 CDE90267 		strd	r6, r7, [sp, #8]
 851 00a4 CDE90010 		strd	r1, r0, [sp]
 852 00a8 2946     		mov	r1, r5
 853 00aa 2046     		mov	r0, r4
 854 00ac FFF7FEFF 		bl	chprintf.constprop.0
 855              	.LVL69:
ARM GAS  C:\Users\me\AppData\Local\Temp\ccKenzjg.s 			page 16


 856              		.loc 1 279 0 discriminator 1
 857 00b0 BDF962B0 		ldrsh	fp, [sp, #98]
 858 00b4 BDF96E20 		ldrsh	r2, [sp, #110]
 859              		.loc 1 278 0 discriminator 1
 860 00b8 BDF96C70 		ldrsh	r7, [sp, #108]
 861 00bc BDF96060 		ldrsh	r6, [sp, #96]
 862              		.loc 1 276 0 discriminator 1
 863 00c0 BDF968E0 		ldrsh	lr, [sp, #104]
 864              		.loc 1 277 0 discriminator 1
 865 00c4 BDF95E00 		ldrsh	r0, [sp, #94]
 866 00c8 BDF96AA0 		ldrsh	r10, [sp, #106]
 867              		.loc 1 276 0 discriminator 1
 868 00cc BDF95C10 		ldrsh	r1, [sp, #92]
 869              		.loc 1 275 0 discriminator 1
 870 00d0 BDF95AC0 		ldrsh	ip, [sp, #90]
 871 00d4 BDF96630 		ldrsh	r3, [sp, #102]
 872              		.loc 1 273 0 discriminator 1
 873 00d8 ABEB0202 		sub	r2, fp, r2
 874 00dc F61B     		subs	r6, r6, r7
 875 00de 0392     		str	r2, [sp, #12]
 876              		.loc 1 274 0 discriminator 1
 877 00e0 BDF95870 		ldrsh	r7, [sp, #88]
 878 00e4 BDF96420 		ldrsh	r2, [sp, #100]
 879              		.loc 1 273 0 discriminator 1
 880 00e8 0296     		str	r6, [sp, #8]
 881 00ea A1EB0E01 		sub	r1, r1, lr
 882 00ee A0EB0A00 		sub	r0, r0, r10
 883 00f2 ACEB0303 		sub	r3, ip, r3
 884 00f6 BA1A     		subs	r2, r7, r2
 885 00f8 CDE90010 		strd	r1, r0, [sp]
 886 00fc 2946     		mov	r1, r5
 887 00fe 2046     		mov	r0, r4
 888 0100 FFF7FEFF 		bl	chprintf.constprop.0
 889              	.LVL70:
 890              		.loc 1 282 0 discriminator 1
 891 0104 0C98     		ldr	r0, [sp, #48]	@ float
 892 0106 FFF7FEFF 		bl	__aeabi_f2d
 893              	.LVL71:
 894 010a 9DF87C30 		ldrb	r3, [sp, #124]	@ zero_extendqisi2
 895 010e 0A93     		str	r3, [sp, #40]
 896 0110 0646     		mov	r6, r0
 897 0112 1198     		ldr	r0, [sp, #68]	@ float
 898 0114 0F46     		mov	r7, r1
 899 0116 FFF7FEFF 		bl	__aeabi_f2d
 900              	.LVL72:
 901 011a CDE90801 		strd	r0, [sp, #32]
 902 011e 1098     		ldr	r0, [sp, #64]	@ float
 903 0120 FFF7FEFF 		bl	__aeabi_f2d
 904              	.LVL73:
 905 0124 CDE90601 		strd	r0, [sp, #24]
 906 0128 0F98     		ldr	r0, [sp, #60]	@ float
 907 012a FFF7FEFF 		bl	__aeabi_f2d
 908              	.LVL74:
 909 012e CDE90401 		strd	r0, [sp, #16]
 910 0132 0E98     		ldr	r0, [sp, #56]	@ float
 911 0134 FFF7FEFF 		bl	__aeabi_f2d
 912              	.LVL75:
ARM GAS  C:\Users\me\AppData\Local\Temp\ccKenzjg.s 			page 17


 913 0138 CDE90201 		strd	r0, [sp, #8]
 914 013c 0D98     		ldr	r0, [sp, #52]	@ float
 915 013e FFF7FEFF 		bl	__aeabi_f2d
 916              	.LVL76:
 917 0142 3246     		mov	r2, r6
 918 0144 CDE90001 		strd	r0, [sp]
 919 0148 3B46     		mov	r3, r7
 920 014a 4946     		mov	r1, r9
 921 014c 2046     		mov	r0, r4
 922 014e FFF7FEFF 		bl	chprintf.constprop.0
 923              	.LVL77:
 924              		.loc 1 287 0 discriminator 1
 925 0152 0CA8     		add	r0, sp, #48
 926 0154 FFF7FEFF 		bl	show_gravity
 927              	.LVL78:
 928              		.loc 1 288 0 discriminator 1
 929 0158 6420     		movs	r0, #100
 930 015a FFF7FEFF 		bl	chThdSleep
 931              	.LVL79:
 932 015e 8EE7     		b	.L60
 933              	.L63:
 934              		.align	2
 935              	.L62:
 936 0160 00000000 		.word	.LANCHOR3
 937 0164 00000000 		.word	SD3
 938 0168 08000000 		.word	.LC2
 939 016c 00000000 		.word	.LANCHOR4
 940 0170 00000000 		.word	GPTD11
 941 0174 00000000 		.word	.LANCHOR5
 942 0178 00000000 		.word	.LANCHOR6
 943 017c 00000000 		.word	.LANCHOR7
 944 0180 00000000 		.word	ThdFrontLed
 945 0184 00000000 		.word	.LANCHOR8
 946 0188 00000000 		.word	ThdBodyLed
 947 018c 00000000 		.word	.LANCHOR9
 948 0190 00000000 		.word	.LC1
 949 0194 3C000000 		.word	.LC3
 950              		.cfi_endproc
 951              	.LFE263:
 952              		.size	main, .-main
 953              		.global	bus_condvar
 954              		.global	bus_lock
 955              		.global	bus
 956              		.section	.bss.bus,"aw",%nobits
 957              		.align	2
 958              		.set	.LANCHOR7,. + 0
 959              		.type	bus, %object
 960              		.size	bus, 12
 961              	bus:
 962 0000 00000000 		.space	12
 962      00000000 
 962      00000000 
 963              		.section	.bss.waThdBodyLed,"aw",%nobits
 964              		.align	3
 965              		.set	.LANCHOR9,. + 0
 966              		.type	waThdBodyLed, %object
 967              		.size	waThdBodyLed, 504
ARM GAS  C:\Users\me\AppData\Local\Temp\ccKenzjg.s 			page 18


 968              	waThdBodyLed:
 969 0000 00000000 		.space	504
 969      00000000 
 969      00000000 
 969      00000000 
 969      00000000 
 970              		.section	.bss.waThdFrontLed,"aw",%nobits
 971              		.align	3
 972              		.set	.LANCHOR8,. + 0
 973              		.type	waThdFrontLed, %object
 974              		.size	waThdFrontLed, 504
 975              	waThdFrontLed:
 976 0000 00000000 		.space	504
 976      00000000 
 976      00000000 
 976      00000000 
 976      00000000 
 977              		.section	.data.bus_condvar,"aw",%progbits
 978              		.align	2
 979              		.set	.LANCHOR5,. + 0
 980              		.type	bus_condvar, %object
 981              		.size	bus_condvar, 8
 982              	bus_condvar:
 983 0000 00000000 		.word	bus_condvar
 984 0004 00000000 		.word	bus_condvar
 985              		.section	.data.bus_lock,"aw",%progbits
 986              		.align	2
 987              		.set	.LANCHOR6,. + 0
 988              		.type	bus_lock, %object
 989              		.size	bus_lock, 20
 990              	bus_lock:
 991 0000 00000000 		.word	bus_lock
 992 0004 00000000 		.word	bus_lock
 993 0008 00000000 		.word	0
 994 000c 00000000 		.word	0
 995 0010 00000000 		.word	0
 996              		.section	.data.ser_cfg.10164,"aw",%progbits
 997              		.align	2
 998              		.set	.LANCHOR3,. + 0
 999              		.type	ser_cfg.10164, %object
 1000              		.size	ser_cfg.10164, 12
 1001              	ser_cfg.10164:
 1002 0000 00C20100 		.word	115200
 1003 0004 0000     		.short	0
 1004 0006 0000     		.short	0
 1005 0008 0000     		.short	0
 1006 000a 0000     		.space	2
 1007              		.section	.rodata.__FUNCTION__.10173,"a",%progbits
 1008              		.align	2
 1009              		.set	.LANCHOR1,. + 0
 1010              		.type	__FUNCTION__.10173, %object
 1011              		.size	__FUNCTION__.10173, 12
 1012              	__FUNCTION__.10173:
 1013 0000 54686446 		.ascii	"ThdFrontLed\000"
 1013      726F6E74 
 1013      4C656400 
 1014              		.section	.rodata.__FUNCTION__.10180,"a",%progbits
ARM GAS  C:\Users\me\AppData\Local\Temp\ccKenzjg.s 			page 19


 1015              		.align	2
 1016              		.set	.LANCHOR0,. + 0
 1017              		.type	__FUNCTION__.10180, %object
 1018              		.size	__FUNCTION__.10180, 11
 1019              	__FUNCTION__.10180:
 1020 0000 54686442 		.ascii	"ThdBodyLed\000"
 1020      6F64794C 
 1020      656400
 1021              		.section	.rodata.__func__.7153,"a",%progbits
 1022              		.align	2
 1023              		.set	.LANCHOR2,. + 0
 1024              		.type	__func__.7153, %object
 1025              		.size	__func__.7153, 12
 1026              	__func__.7153:
 1027 0000 63685379 		.ascii	"chSysUnlock\000"
 1027      73556E6C 
 1027      6F636B00 
 1028              		.section	.rodata.gpt11cfg.10168,"a",%progbits
 1029              		.align	2
 1030              		.set	.LANCHOR4,. + 0
 1031              		.type	gpt11cfg.10168, %object
 1032              		.size	gpt11cfg.10168, 16
 1033              	gpt11cfg.10168:
 1034 0000 40420F00 		.word	1000000
 1035 0004 00000000 		.word	0
 1036 0008 00000000 		.word	0
 1037 000c 00000000 		.word	0
 1038              		.section	.rodata.main.str1.4,"aMS",%progbits,1
 1039              		.align	2
 1040              	.LC1:
 1041 0000 2F696D75 		.ascii	"/imu\000"
 1041      00
 1042 0005 000000   		.space	3
 1043              	.LC2:
 1044 0008 2541783D 		.ascii	"%Ax=%-7d Ay=%-7d Az=%-7d Gx=%-7d Gy=%-7d Gz=%-7d\015"
 1044      252D3764 
 1044      2041793D 
 1044      252D3764 
 1044      20417A3D 
 1045 0039 0A00     		.ascii	"\012\000"
 1046 003b 00       		.space	1
 1047              	.LC3:
 1048 003c 2541783D 		.ascii	"%Ax=%.2f Ay=%.2f Az=%.2f Gx=%.2f Gy=%.2f Gz=%.2f (%"
 1048      252E3266 
 1048      2041793D 
 1048      252E3266 
 1048      20417A3D 
 1049 006f 78290D0A 		.ascii	"x)\015\012\012\000"
 1049      0A00
 1050              		.section	.rodata.show_gravity.str1.4,"aMS",%progbits,1
 1051              		.align	2
 1052              	.LC0:
 1053 0000 74696D65 		.ascii	"time = %dus\012\000"
 1053      203D2025 
 1053      6475730A 
 1053      00
 1054              		.text
ARM GAS  C:\Users\me\AppData\Local\Temp\ccKenzjg.s 			page 20


 1055              	.Letext0:
 1056              		.file 7 "c:\\eclipse_e-puck2\\tools\\gcc-arm-none-eabi-7-2017-q4-major-win32\\lib\\gcc\\arm-none-e
 1057              		.file 8 "c:\\eclipse_e-puck2\\tools\\gcc-arm-none-eabi-7-2017-q4-major-win32\\arm-none-eabi\\inclu
 1058              		.file 9 "c:\\eclipse_e-puck2\\tools\\gcc-arm-none-eabi-7-2017-q4-major-win32\\arm-none-eabi\\inclu
 1059              		.file 10 "../../lib/ChibiOS/os/rt/ports/ARMCMx/compilers/GCC/chtypes.h"
 1060              		.file 11 "../../lib/ChibiOS/os/rt/include/chsystypes.h"
 1061              		.file 12 "../../lib/ChibiOS/os/rt/include/chschd.h"
 1062              		.file 13 "../../lib/ChibiOS/os/ext/CMSIS/include/core_cm4.h"
 1063              		.file 14 "../../lib/ChibiOS/os/ext/CMSIS/ST/system_stm32f4xx.h"
 1064              		.file 15 "../../lib/ChibiOS/os/ext/CMSIS/ST/stm32f407xx.h"
 1065              		.file 16 "../../lib/ChibiOS/os/rt/ports/ARMCMx/chcore.h"
 1066              		.file 17 "../../lib/ChibiOS/os/rt/ports/ARMCMx/chcore_v7m.h"
 1067              		.file 18 "../../lib/ChibiOS/os/rt/include/chdebug.h"
 1068              		.file 19 "../../lib/ChibiOS/os/rt/include/chtm.h"
 1069              		.file 20 "../../lib/ChibiOS/os/rt/include/chstats.h"
 1070              		.file 21 "../../lib/ChibiOS/os/rt/include/chsem.h"
 1071              		.file 22 "../../lib/ChibiOS/os/rt/include/chmtx.h"
 1072              		.file 23 "../../lib/ChibiOS/os/rt/include/chcond.h"
 1073              		.file 24 "../../lib/ChibiOS/os/rt/include/chevents.h"
 1074              		.file 25 "../../lib/ChibiOS/os/rt/include/chqueues.h"
 1075              		.file 26 "../../lib/ChibiOS/os/rt/include/chstreams.h"
 1076              		.file 27 "../../lib/ChibiOS/os/hal/ports/STM32/STM32F4xx/stm32_dma.h"
 1077              		.file 28 "../../lib/ChibiOS/os/hal/ports/STM32/LLD/GPIOv2/pal_lld.h"
 1078              		.file 29 "../../lib/ChibiOS/os/hal/include/gpt.h"
 1079              		.file 30 "../../lib/ChibiOS/os/hal/ports/STM32/LLD/TIMv1/gpt_lld.h"
 1080              		.file 31 "../../lib/ChibiOS/os/hal/ports/STM32/LLD/TIMv1/stm32_tim.h"
 1081              		.file 32 "../../lib/ChibiOS/os/hal/include/i2c.h"
 1082              		.file 33 "../../lib/ChibiOS/os/hal/ports/STM32/LLD/I2Cv1/i2c_lld.h"
 1083              		.file 34 "../../lib/ChibiOS/os/hal/include/serial.h"
 1084              		.file 35 "../../lib/ChibiOS/os/hal/ports/STM32/LLD/USARTv1/serial_lld.h"
 1085              		.file 36 "../../lib/ChibiOS/os/hal/include/usb.h"
 1086              		.file 37 "../../lib/ChibiOS/os/hal/ports/STM32/LLD/OTGv1/usb_lld.h"
 1087              		.file 38 "../../lib/ChibiOS/os/hal/ports/STM32/LLD/OTGv1/stm32_otg.h"
 1088              		.file 39 "c:\\eclipse_e-puck2\\tools\\gcc-arm-none-eabi-7-2017-q4-major-win32\\arm-none-eabi\\incl
 1089              		.file 40 "c:\\eclipse_e-puck2\\tools\\gcc-arm-none-eabi-7-2017-q4-major-win32\\arm-none-eabi\\incl
 1090              		.file 41 "c:\\eclipse_e-puck2\\tools\\gcc-arm-none-eabi-7-2017-q4-major-win32\\arm-none-eabi\\incl
 1091              		.file 42 "c:\\eclipse_e-puck2\\tools\\gcc-arm-none-eabi-7-2017-q4-major-win32\\arm-none-eabi\\incl
 1092              		.file 43 "c:\\eclipse_e-puck2\\tools\\gcc-arm-none-eabi-7-2017-q4-major-win32\\lib\\gcc\\arm-none-
 1093              		.file 44 "<built-in>"
 1094              		.file 45 "c:\\eclipse_e-puck2\\tools\\gcc-arm-none-eabi-7-2017-q4-major-win32\\arm-none-eabi\\incl
 1095              		.file 46 "../../lib/msgbus/messagebus.h"
 1096              		.file 47 "./mpu9250.h"
 1097              		.file 48 "./imu.h"
 1098              		.file 49 "../../lib/ChibiOS/os/hal/include/hal.h"
 1099              		.file 50 "./i2c_bus.h"
 1100              		.file 51 "../../lib/ChibiOS/os/rt/include/chthreads.h"