ARM GAS  C:\Users\me\AppData\Local\Temp\ccohu0Ck.s 			page 1


   1              		.cpu cortex-m4
   2              		.eabi_attribute 27, 1
   3              		.eabi_attribute 28, 1
   4              		.eabi_attribute 20, 1
   5              		.eabi_attribute 21, 1
   6              		.eabi_attribute 23, 3
   7              		.eabi_attribute 24, 1
   8              		.eabi_attribute 25, 1
   9              		.eabi_attribute 26, 1
  10              		.eabi_attribute 30, 2
  11              		.eabi_attribute 34, 1
  12              		.eabi_attribute 18, 4
  13              		.file	"process_image.c"
  14              		.text
  15              	.Ltext0:
  16              		.cfi_sections	.debug_frame
  17              		.section	.text.chprintf.constprop.0,"ax",%progbits
  18              		.align	1
  19              		.p2align 4,,15
  20              		.syntax unified
  21              		.thumb
  22              		.thumb_func
  23              		.fpu fpv4-sp-d16
  24              		.type	chprintf.constprop.0, %function
  25              	chprintf.constprop.0:
  26              	.LFB267:
  27              		.file 1 "../../lib/e-puck2_main-processor/ChibiOS//os/hal/lib/streams/chprintf.h"
  28              		.loc 1 69 0
  29              		.cfi_startproc
  30              		@ args = 4, pretend = 12, frame = 8
  31              		@ frame_needed = 0, uses_anonymous_args = 1
  32              	.LVL0:
  33 0000 0EB4     		push	{r1, r2, r3}
  34              		.cfi_def_cfa_offset 12
  35              		.cfi_offset 1, -12
  36              		.cfi_offset 2, -8
  37              		.cfi_offset 3, -4
  38 0002 10B5     		push	{r4, lr}
  39              		.cfi_def_cfa_offset 20
  40              		.cfi_offset 4, -20
  41              		.cfi_offset 14, -16
  42 0004 0A4C     		ldr	r4, .L6
  43              		.loc 1 74 0
  44 0006 0B49     		ldr	r1, .L6+4
  45              		.loc 1 69 0
  46 0008 2368     		ldr	r3, [r4]
  47              		.loc 1 74 0
  48 000a 0B48     		ldr	r0, .L6+8
  49              	.LVL1:
  50              		.loc 1 69 0
  51 000c 83B0     		sub	sp, sp, #12
  52              		.cfi_def_cfa_offset 32
  53              		.loc 1 69 0
  54 000e 0193     		str	r3, [sp, #4]
  55              	.LVL2:
  56              		.loc 1 73 0
  57 0010 06AB     		add	r3, sp, #24
ARM GAS  C:\Users\me\AppData\Local\Temp\ccohu0Ck.s 			page 2


  58              		.loc 1 74 0
  59 0012 1A46     		mov	r2, r3
  60              		.loc 1 73 0
  61 0014 0093     		str	r3, [sp]
  62              		.loc 1 74 0
  63 0016 FFF7FEFF 		bl	chvprintf
  64              	.LVL3:
  65              		.loc 1 78 0
  66 001a 019A     		ldr	r2, [sp, #4]
  67 001c 2368     		ldr	r3, [r4]
  68 001e 9A42     		cmp	r2, r3
  69 0020 04D1     		bne	.L5
  70 0022 03B0     		add	sp, sp, #12
  71              		.cfi_remember_state
  72              		.cfi_def_cfa_offset 20
  73              		@ sp needed
  74 0024 BDE81040 		pop	{r4, lr}
  75              		.cfi_restore 14
  76              		.cfi_restore 4
  77              		.cfi_def_cfa_offset 12
  78 0028 03B0     		add	sp, sp, #12
  79              		.cfi_restore 3
  80              		.cfi_restore 2
  81              		.cfi_restore 1
  82              		.cfi_def_cfa_offset 0
  83 002a 7047     		bx	lr
  84              	.L5:
  85              		.cfi_restore_state
  86 002c FFF7FEFF 		bl	__stack_chk_fail
  87              	.LVL4:
  88              	.L7:
  89              		.align	2
  90              	.L6:
  91 0030 00000000 		.word	__stack_chk_guard
  92 0034 00000000 		.word	.LC0
  93 0038 00000000 		.word	SD3
  94              		.cfi_endproc
  95              	.LFE267:
  96              		.size	chprintf.constprop.0, .-chprintf.constprop.0
  97              		.section	.text.CaptureImage,"ax",%progbits
  98              		.align	1
  99              		.p2align 4,,15
 100              		.syntax unified
 101              		.thumb
 102              		.thumb_func
 103              		.fpu fpv4-sp-d16
 104              		.type	CaptureImage, %function
 105              	CaptureImage:
 106              	.LFB258:
 107              		.file 2 "process_image.c"
 108              		.loc 2 120 0
 109              		.cfi_startproc
 110              		@ Volatile: function does not return.
 111              		@ args = 0, pretend = 0, frame = 8
 112              		@ frame_needed = 0, uses_anonymous_args = 0
 113              	.LVL5:
 114 0000 80B5     		push	{r7, lr}
ARM GAS  C:\Users\me\AppData\Local\Temp\ccohu0Ck.s 			page 3


 115              		.cfi_def_cfa_offset 8
 116              		.cfi_offset 7, -8
 117              		.cfi_offset 14, -4
 118              	.LBB53:
 119              	.LBB54:
 120              		.file 3 "../../lib/e-puck2_main-processor/ChibiOS//os/rt/include/chregistry.h"
 121              		.loc 3 135 0
 122 0002 234C     		ldr	r4, .L14
 123              	.LBE54:
 124              	.LBE53:
 125              		.loc 2 120 0
 126 0004 234A     		ldr	r2, .L14+4
 127              	.LBB57:
 128              	.LBB55:
 129              		.loc 3 135 0
 130 0006 A369     		ldr	r3, [r4, #24]
 131 0008 2349     		ldr	r1, .L14+8
 132              	.LBE55:
 133              	.LBE57:
 134              		.loc 2 120 0
 135 000a 1668     		ldr	r6, [r2]
 136              	.LBB58:
 137              	.LBB56:
 138              		.loc 3 135 0
 139 000c 9961     		str	r1, [r3, #24]
 140              	.LBE56:
 141              	.LBE58:
 142              		.loc 2 120 0
 143 000e 86B0     		sub	sp, sp, #24
 144              		.cfi_def_cfa_offset 32
 145              		.loc 2 128 0
 146 0010 0223     		movs	r3, #2
 147 0012 2025     		movs	r5, #32
 148 0014 1922     		movs	r2, #25
 149 0016 0021     		movs	r1, #0
 150 0018 0093     		str	r3, [sp]
 151              		.loc 2 120 0
 152 001a 0596     		str	r6, [sp, #20]
 153              		.loc 2 128 0
 154 001c 4FF42073 		mov	r3, #640
 155 0020 CDE90155 		strd	r5, r5, [sp, #4]
 156 0024 3020     		movs	r0, #48
 157              	.LVL6:
 158 0026 1D4E     		ldr	r6, .L14+12
 159              	.LBB59:
 160              	.LBB60:
 161              	.LBB61:
 162              	.LBB62:
 163              		.file 4 "../../lib/e-puck2_main-processor/ChibiOS//os/rt/include/chsys.h"
 164              		.loc 4 367 0
 165 0028 1D4F     		ldr	r7, .L14+16
 166              	.LBE62:
 167              	.LBE61:
 168              	.LBE60:
 169              	.LBE59:
 170              		.loc 2 128 0
 171 002a FFF7FEFF 		bl	po8030_advanced_config
ARM GAS  C:\Users\me\AppData\Local\Temp\ccohu0Ck.s 			page 4


 172              	.LVL7:
 173              		.loc 2 129 0
 174 002e FFF7FEFF 		bl	dcmi_enable_double_buffering
 175              	.LVL8:
 176              		.loc 2 130 0
 177 0032 0020     		movs	r0, #0
 178 0034 FFF7FEFF 		bl	dcmi_set_capture_mode
 179              	.LVL9:
 180              	.LBB80:
 181              	.LBB77:
 182              	.LBB67:
 183              	.LBB68:
 184              		.file 5 "../../lib/e-puck2_main-processor/ChibiOS//os/rt/include/chbsem.h"
 185              		.loc 5 271 0
 186 0038 B046     		mov	r8, r6
 187              	.LBE68:
 188              	.LBE67:
 189              	.LBE77:
 190              	.LBE80:
 191              		.loc 2 131 0
 192 003a FFF7FEFF 		bl	dcmi_prepare
 193              	.LVL10:
 194 003e 13E0     		b	.L11
 195              	.LVL11:
 196              	.L9:
 197              	.LBB81:
 198              	.LBB78:
 199              		.loc 5 286 0
 200 0040 FFF7FEFF 		bl	chSchRescheduleS
 201              	.LVL12:
 202              	.LBB70:
 203              	.LBB66:
 204              		.loc 4 360 0
 205 0044 FFF7FEFF 		bl	_dbg_check_unlock
 206              	.LVL13:
 207              		.loc 4 361 0
 208 0048 FFF7FEFF 		bl	_stats_stop_measure_crit_thd
 209              	.LVL14:
 210              		.loc 4 367 0
 211 004c 2368     		ldr	r3, [r4]
 212 004e A342     		cmp	r3, r4
 213 0050 07D0     		beq	.L10
 214 0052 A269     		ldr	r2, [r4, #24]
 215 0054 9B68     		ldr	r3, [r3, #8]
 216 0056 9268     		ldr	r2, [r2, #8]
 217 0058 9A42     		cmp	r2, r3
 218 005a 02D2     		bcs	.L10
 219 005c 3846     		mov	r0, r7
 220 005e FFF7FEFF 		bl	chSysHalt
 221              	.LVL15:
 222              	.L10:
 223              	.LBB63:
 224              	.LBB64:
 225              	.LBB65:
 226              		.file 6 "../../lib/e-puck2_main-processor/ChibiOS//os/ext/CMSIS/include/core_cmFunc.h"
 227              		.loc 6 546 0
 228 0062 0023     		movs	r3, #0
ARM GAS  C:\Users\me\AppData\Local\Temp\ccohu0Ck.s 			page 5


 229              		.syntax unified
 230              	@ 546 "../../lib/e-puck2_main-processor/ChibiOS//os/ext/CMSIS/include/core_cmFunc.h" 1
 231 0064 83F31188 		MSR basepri, r3
 232              	@ 0 "" 2
 233              	.LVL16:
 234              		.thumb
 235              		.syntax unified
 236              	.L11:
 237              	.LBE65:
 238              	.LBE64:
 239              	.LBE63:
 240              	.LBE66:
 241              	.LBE70:
 242              	.LBE78:
 243              	.LBE81:
 244              		.loc 2 140 0 discriminator 1
 245 0068 FFF7FEFF 		bl	dcmi_capture_start
 246              	.LVL17:
 247              		.loc 2 142 0 discriminator 1
 248 006c FFF7FEFF 		bl	wait_image_ready
 249              	.LVL18:
 250              	.LBB82:
 251              	.LBB79:
 252              	.LBB71:
 253              	.LBB72:
 254              	.LBB73:
 255              	.LBB74:
 256              	.LBB75:
 257              		.loc 6 546 0 discriminator 1
 258              		.syntax unified
 259              	@ 546 "../../lib/e-puck2_main-processor/ChibiOS//os/ext/CMSIS/include/core_cmFunc.h" 1
 260 0070 85F31188 		MSR basepri, r5
 261              	@ 0 "" 2
 262              	.LVL19:
 263              		.thumb
 264              		.syntax unified
 265              	.LBE75:
 266              	.LBE74:
 267              	.LBE73:
 268              		.loc 4 349 0 discriminator 1
 269 0074 FFF7FEFF 		bl	_stats_start_measure_crit_thd
 270              	.LVL20:
 271              		.loc 4 350 0 discriminator 1
 272 0078 FFF7FEFF 		bl	_dbg_check_lock
 273              	.LVL21:
 274              	.LBE72:
 275              	.LBE71:
 276              	.LBB76:
 277              	.LBB69:
 278              		.loc 5 268 0 discriminator 1
 279 007c FFF7FEFF 		bl	chDbgCheckClassI
 280              	.LVL22:
 281              		.loc 5 270 0 discriminator 1
 282 0080 B368     		ldr	r3, [r6, #8]
 283 0082 002B     		cmp	r3, #0
 284 0084 DCDC     		bgt	.L9
 285              		.loc 5 271 0
ARM GAS  C:\Users\me\AppData\Local\Temp\ccohu0Ck.s 			page 6


 286 0086 4046     		mov	r0, r8
 287 0088 FFF7FEFF 		bl	chSemSignalI
 288              	.LVL23:
 289 008c D8E7     		b	.L9
 290              	.L15:
 291 008e 00BF     		.align	2
 292              	.L14:
 293 0090 00000000 		.word	ch
 294 0094 00000000 		.word	__stack_chk_guard
 295 0098 00000000 		.word	.LANCHOR0
 296 009c 00000000 		.word	.LANCHOR1
 297 00a0 00000000 		.word	.LANCHOR2
 298              	.LBE69:
 299              	.LBE76:
 300              	.LBE79:
 301              	.LBE82:
 302              		.cfi_endproc
 303              	.LFE258:
 304              		.size	CaptureImage, .-CaptureImage
 305              		.section	.text.extract_line_width,"ax",%progbits
 306              		.align	1
 307              		.p2align 4,,15
 308              		.global	extract_line_width
 309              		.syntax unified
 310              		.thumb
 311              		.thumb_func
 312              		.fpu fpv4-sp-d16
 313              		.type	extract_line_width, %function
 314              	extract_line_width:
 315              	.LFB257:
 316              		.loc 2 38 0
 317              		.cfi_startproc
 318              		@ args = 0, pretend = 0, frame = 8
 319              		@ frame_needed = 0, uses_anonymous_args = 0
 320              	.LVL24:
 321 0000 F0B5     		push	{r4, r5, r6, r7, lr}
 322              		.cfi_def_cfa_offset 20
 323              		.cfi_offset 4, -20
 324              		.cfi_offset 5, -16
 325              		.cfi_offset 6, -12
 326              		.cfi_offset 7, -8
 327              		.cfi_offset 14, -4
 328 0002 344C     		ldr	r4, .L45
 329 0004 83B0     		sub	sp, sp, #12
 330              		.cfi_def_cfa_offset 32
 331              		.loc 2 38 0
 332 0006 2368     		ldr	r3, [r4]
 333 0008 0193     		str	r3, [sp, #4]
 334              	.LVL25:
 335 000a 00F27F25 		addw	r5, r0, #639
 336 000e 431E     		subs	r3, r0, #1
 337              		.loc 2 42 0
 338 0010 0022     		movs	r2, #0
 339              	.LVL26:
 340              	.L17:
 341              	.LBB83:
 342              		.loc 2 48 0 discriminator 3
ARM GAS  C:\Users\me\AppData\Local\Temp\ccohu0Ck.s 			page 7


 343 0012 13F8011F 		ldrb	r1, [r3, #1]!	@ zero_extendqisi2
 344              		.loc 2 47 0 discriminator 3
 345 0016 9D42     		cmp	r5, r3
 346              		.loc 2 48 0 discriminator 3
 347 0018 0A44     		add	r2, r2, r1
 348              	.LVL27:
 349              		.loc 2 47 0 discriminator 3
 350 001a FAD1     		bne	.L17
 351              	.LBE83:
 352              		.loc 2 50 0
 353 001c 2E4B     		ldr	r3, .L45+4
 354 001e 0578     		ldrb	r5, [r0]	@ zero_extendqisi2
 355 0020 A3FB0232 		umull	r3, r2, r3, r2
 356              	.LVL28:
 357 0024 520A     		lsrs	r2, r2, #9
 358              	.LVL29:
 359              		.loc 2 40 0
 360 0026 0021     		movs	r1, #0
 361              		.loc 2 55 0
 362 0028 40F27A26 		movw	r6, #634
 363              	.LVL30:
 364              	.L18:
 365 002c 4B1C     		adds	r3, r1, #1
 366              		.loc 2 59 0
 367 002e 9542     		cmp	r5, r2
 368 0030 9BB2     		uxth	r3, r3
 369 0032 1FD9     		bls	.L20
 370              	.L43:
 371              		.loc 2 59 0 is_stmt 0 discriminator 1
 372 0034 4518     		adds	r5, r0, r1
 373 0036 6D79     		ldrb	r5, [r5, #5]	@ zero_extendqisi2
 374 0038 9542     		cmp	r5, r2
 375 003a 1BD2     		bcs	.L20
 376              	.LVL31:
 377              		.loc 2 67 0 is_stmt 1
 378 003c B342     		cmp	r3, r6
 379 003e 25D8     		bhi	.L19
 380              		.loc 2 67 0 is_stmt 0 discriminator 1
 381 0040 21B3     		cbz	r1, .L19
 382 0042 03F1FF3C 		add	ip, r3, #-1
 383 0046 8444     		add	ip, ip, r0
 384              	.LVL32:
 385              	.L28:
 386              		.loc 2 73 0 is_stmt 1
 387 0048 1CF8015F 		ldrb	r5, [ip, #1]!	@ zero_extendqisi2
 388 004c 9542     		cmp	r5, r2
 389 004e 9FB2     		uxth	r7, r3
 390 0050 15D9     		bls	.L23
 391              		.loc 2 73 0 is_stmt 0 discriminator 1
 392 0052 1CF805EC 		ldrb	lr, [ip, #-5]	@ zero_extendqisi2
 393 0056 9645     		cmp	lr, r2
 394 0058 11D2     		bcs	.L23
 395              	.LVL33:
 396              		.loc 2 92 0 is_stmt 1
 397 005a A7EB010C 		sub	ip, r7, r1
 398 005e BCF1270F 		cmp	ip, #39
 399 0062 3B46     		mov	r3, r7
ARM GAS  C:\Users\me\AppData\Local\Temp\ccohu0Ck.s 			page 8


 400 0064 2ADC     		bgt	.L42
 401              	.LVL34:
 402              		.loc 2 55 0
 403 0066 B742     		cmp	r7, r6
 404 0068 10D8     		bhi	.L19
 405 006a 3946     		mov	r1, r7
 406 006c 4B1C     		adds	r3, r1, #1
 407              		.loc 2 59 0
 408 006e 9542     		cmp	r5, r2
 409 0070 9BB2     		uxth	r3, r3
 410 0072 DFD8     		bhi	.L43
 411              	.LVL35:
 412              	.L20:
 413              		.loc 2 55 0 discriminator 1
 414 0074 B342     		cmp	r3, r6
 415 0076 09D8     		bhi	.L19
 416 0078 C55C     		ldrb	r5, [r0, r3]	@ zero_extendqisi2
 417              	.LVL36:
 418              		.loc 2 55 0 is_stmt 0
 419 007a 1946     		mov	r1, r3
 420 007c D6E7     		b	.L18
 421              	.LVL37:
 422              	.L23:
 423 007e 0137     		adds	r7, r7, #1
 424 0080 BFB2     		uxth	r7, r7
 425              	.LVL38:
 426              		.loc 2 71 0 is_stmt 1
 427 0082 B7F5207F 		cmp	r7, #640
 428 0086 03F10103 		add	r3, r3, #1
 429 008a DDD1     		bne	.L28
 430              	.LVL39:
 431              	.L19:
 432              		.loc 2 104 0
 433 008c 134B     		ldr	r3, .L45+8
 434 008e 1888     		ldrh	r0, [r3]
 435              	.LVL40:
 436              	.L31:
 437              		.loc 2 111 0
 438 0090 DFED136A 		vldr.32	s13, .L45+12
 439              		.loc 2 116 0
 440 0094 019A     		ldr	r2, [sp, #4]
 441 0096 2368     		ldr	r3, [r4]
 442              		.loc 2 111 0
 443 0098 07EE900A 		vmov	s15, r0	@ int
 444 009c F8EEE77A 		vcvt.f32.s32	s15, s15
 445 00a0 86EEA77A 		vdiv.f32	s14, s13, s15
 446 00a4 F3EE097A 		vmov.f32	s15, #2.5e+1
 447              		.loc 2 112 0
 448 00a8 B4EE677A 		vcmp.f32	s14, s15
 449 00ac F1EE10FA 		vmrs	APSR_nzcv, FPSCR
 450              		.loc 2 116 0
 451 00b0 C8BF     		it	gt
 452 00b2 3E20     		movgt	r0, #62
 453              	.LVL41:
 454 00b4 9A42     		cmp	r2, r3
 455 00b6 0AD1     		bne	.L44
 456 00b8 03B0     		add	sp, sp, #12
ARM GAS  C:\Users\me\AppData\Local\Temp\ccohu0Ck.s 			page 9


 457              		.cfi_remember_state
 458              		.cfi_def_cfa_offset 20
 459              		@ sp needed
 460 00ba F0BD     		pop	{r4, r5, r6, r7, pc}
 461              	.LVL42:
 462              	.L42:
 463              		.cfi_restore_state
 464              		.loc 2 106 0
 465 00bc 781A     		subs	r0, r7, r1
 466              	.LVL43:
 467              		.loc 2 107 0
 468 00be 0B44     		add	r3, r3, r1
 469 00c0 084A     		ldr	r2, .L45+16
 470              	.LVL44:
 471              		.loc 2 106 0
 472 00c2 0649     		ldr	r1, .L45+8
 473 00c4 80B2     		uxth	r0, r0
 474              	.LVL45:
 475              		.loc 2 107 0
 476 00c6 5B10     		asrs	r3, r3, #1
 477              		.loc 2 106 0
 478 00c8 0880     		strh	r0, [r1]	@ movhi
 479              		.loc 2 107 0
 480 00ca 1380     		strh	r3, [r2]	@ movhi
 481 00cc E0E7     		b	.L31
 482              	.LVL46:
 483              	.L44:
 484              		.loc 2 116 0
 485 00ce FFF7FEFF 		bl	__stack_chk_fail
 486              	.LVL47:
 487              	.L46:
 488 00d2 00BF     		.align	2
 489              	.L45:
 490 00d4 00000000 		.word	__stack_chk_guard
 491 00d8 CDCCCCCC 		.word	-858993459
 492 00dc 00000000 		.word	.LANCHOR3
 493 00e0 0040C444 		.word	1153712128
 494 00e4 00000000 		.word	.LANCHOR4
 495              		.cfi_endproc
 496              	.LFE257:
 497              		.size	extract_line_width, .-extract_line_width
 498              		.section	.text.get_distance_cm,"ax",%progbits
 499              		.align	1
 500              		.p2align 4,,15
 501              		.global	get_distance_cm
 502              		.syntax unified
 503              		.thumb
 504              		.thumb_func
 505              		.fpu fpv4-sp-d16
 506              		.type	get_distance_cm, %function
 507              	get_distance_cm:
 508              	.LFB260:
 509              		.loc 2 351 0
 510              		.cfi_startproc
 511              		@ args = 0, pretend = 0, frame = 8
 512              		@ frame_needed = 0, uses_anonymous_args = 0
 513 0000 00B5     		push	{lr}
ARM GAS  C:\Users\me\AppData\Local\Temp\ccohu0Ck.s 			page 10


 514              		.cfi_def_cfa_offset 4
 515              		.cfi_offset 14, -4
 516 0002 084B     		ldr	r3, .L51
 517              		.loc 2 352 0
 518 0004 0849     		ldr	r1, .L51+4
 519              		.loc 2 351 0
 520 0006 1A68     		ldr	r2, [r3]
 521              		.loc 2 353 0
 522 0008 91ED000A 		vldr.32	s0, [r1]
 523              		.loc 2 351 0
 524 000c 83B0     		sub	sp, sp, #12
 525              		.cfi_def_cfa_offset 16
 526              		.loc 2 351 0
 527 000e 0192     		str	r2, [sp, #4]
 528              		.loc 2 353 0
 529 0010 019A     		ldr	r2, [sp, #4]
 530 0012 1B68     		ldr	r3, [r3]
 531 0014 9A42     		cmp	r2, r3
 532 0016 02D1     		bne	.L50
 533 0018 03B0     		add	sp, sp, #12
 534              		.cfi_remember_state
 535              		.cfi_def_cfa_offset 4
 536              		@ sp needed
 537 001a 5DF804FB 		ldr	pc, [sp], #4
 538              	.L50:
 539              		.cfi_restore_state
 540 001e FFF7FEFF 		bl	__stack_chk_fail
 541              	.LVL48:
 542              	.L52:
 543 0022 00BF     		.align	2
 544              	.L51:
 545 0024 00000000 		.word	__stack_chk_guard
 546 0028 00000000 		.word	.LANCHOR5
 547              		.cfi_endproc
 548              	.LFE260:
 549              		.size	get_distance_cm, .-get_distance_cm
 550              		.section	.text.process_image_start,"ax",%progbits
 551              		.align	1
 552              		.p2align 4,,15
 553              		.global	process_image_start
 554              		.syntax unified
 555              		.thumb
 556              		.thumb_func
 557              		.fpu fpv4-sp-d16
 558              		.type	process_image_start, %function
 559              	process_image_start:
 560              	.LFB261:
 561              		.loc 2 355 0
 562              		.cfi_startproc
 563              		@ args = 0, pretend = 0, frame = 8
 564              		@ frame_needed = 0, uses_anonymous_args = 0
 565 0000 30B5     		push	{r4, r5, lr}
 566              		.cfi_def_cfa_offset 12
 567              		.cfi_offset 4, -12
 568              		.cfi_offset 5, -8
 569              		.cfi_offset 14, -4
 570 0002 0E4C     		ldr	r4, .L57
ARM GAS  C:\Users\me\AppData\Local\Temp\ccohu0Ck.s 			page 11


 571              		.loc 2 356 0
 572 0004 0E4B     		ldr	r3, .L57+4
 573              		.loc 2 355 0
 574 0006 2268     		ldr	r2, [r4]
 575              		.loc 2 356 0
 576 0008 0E48     		ldr	r0, .L57+8
 577              		.loc 2 355 0
 578 000a 85B0     		sub	sp, sp, #20
 579              		.cfi_def_cfa_offset 32
 580              		.loc 2 356 0
 581 000c 0025     		movs	r5, #0
 582              		.loc 2 355 0
 583 000e 0392     		str	r2, [sp, #12]
 584              		.loc 2 356 0
 585 0010 4FF4AF61 		mov	r1, #1400
 586 0014 4022     		movs	r2, #64
 587 0016 0095     		str	r5, [sp]
 588 0018 FFF7FEFF 		bl	chThdCreateStatic
 589              	.LVL49:
 590              		.loc 2 357 0
 591 001c 0A4B     		ldr	r3, .L57+12
 592 001e 0095     		str	r5, [sp]
 593 0020 4022     		movs	r2, #64
 594 0022 0A48     		ldr	r0, .L57+16
 595 0024 4FF41E71 		mov	r1, #632
 596 0028 FFF7FEFF 		bl	chThdCreateStatic
 597              	.LVL50:
 598              		.loc 2 358 0
 599 002c 039A     		ldr	r2, [sp, #12]
 600 002e 2368     		ldr	r3, [r4]
 601 0030 9A42     		cmp	r2, r3
 602 0032 01D1     		bne	.L56
 603 0034 05B0     		add	sp, sp, #20
 604              		.cfi_remember_state
 605              		.cfi_def_cfa_offset 12
 606              		@ sp needed
 607 0036 30BD     		pop	{r4, r5, pc}
 608              	.L56:
 609              		.cfi_restore_state
 610 0038 FFF7FEFF 		bl	__stack_chk_fail
 611              	.LVL51:
 612              	.L58:
 613              		.align	2
 614              	.L57:
 615 003c 00000000 		.word	__stack_chk_guard
 616 0040 00000000 		.word	ProcessImage
 617 0044 00000000 		.word	.LANCHOR6
 618 0048 00000000 		.word	CaptureImage
 619 004c 00000000 		.word	.LANCHOR7
 620              		.cfi_endproc
 621              	.LFE261:
 622              		.size	process_image_start, .-process_image_start
 623              		.section	.text.get_line_position,"ax",%progbits
 624              		.align	1
 625              		.p2align 4,,15
 626              		.global	get_line_position
 627              		.syntax unified
ARM GAS  C:\Users\me\AppData\Local\Temp\ccohu0Ck.s 			page 12


 628              		.thumb
 629              		.thumb_func
 630              		.fpu fpv4-sp-d16
 631              		.type	get_line_position, %function
 632              	get_line_position:
 633              	.LFB262:
 634              		.loc 2 360 0
 635              		.cfi_startproc
 636              		@ args = 0, pretend = 0, frame = 8
 637              		@ frame_needed = 0, uses_anonymous_args = 0
 638 0000 00B5     		push	{lr}
 639              		.cfi_def_cfa_offset 4
 640              		.cfi_offset 14, -4
 641 0002 074B     		ldr	r3, .L63
 642              		.loc 2 361 0
 643 0004 0749     		ldr	r1, .L63+4
 644              		.loc 2 360 0
 645 0006 1A68     		ldr	r2, [r3]
 646              		.loc 2 362 0
 647 0008 0888     		ldrh	r0, [r1]
 648              		.loc 2 360 0
 649 000a 83B0     		sub	sp, sp, #12
 650              		.cfi_def_cfa_offset 16
 651              		.loc 2 360 0
 652 000c 0192     		str	r2, [sp, #4]
 653              		.loc 2 362 0
 654 000e 019A     		ldr	r2, [sp, #4]
 655 0010 1B68     		ldr	r3, [r3]
 656 0012 9A42     		cmp	r2, r3
 657 0014 02D1     		bne	.L62
 658 0016 03B0     		add	sp, sp, #12
 659              		.cfi_remember_state
 660              		.cfi_def_cfa_offset 4
 661              		@ sp needed
 662 0018 5DF804FB 		ldr	pc, [sp], #4
 663              	.L62:
 664              		.cfi_restore_state
 665 001c FFF7FEFF 		bl	__stack_chk_fail
 666              	.LVL52:
 667              	.L64:
 668              		.align	2
 669              	.L63:
 670 0020 00000000 		.word	__stack_chk_guard
 671 0024 00000000 		.word	.LANCHOR4
 672              		.cfi_endproc
 673              	.LFE262:
 674              		.size	get_line_position, .-get_line_position
 675              		.section	.text.check_threshold,"ax",%progbits
 676              		.align	1
 677              		.p2align 4,,15
 678              		.global	check_threshold
 679              		.syntax unified
 680              		.thumb
 681              		.thumb_func
 682              		.fpu fpv4-sp-d16
 683              		.type	check_threshold, %function
 684              	check_threshold:
ARM GAS  C:\Users\me\AppData\Local\Temp\ccohu0Ck.s 			page 13


 685              	.LFB263:
 686              		.loc 2 365 0
 687              		.cfi_startproc
 688              		@ args = 0, pretend = 0, frame = 8
 689              		@ frame_needed = 0, uses_anonymous_args = 0
 690 0000 F0B5     		push	{r4, r5, r6, r7, lr}
 691              		.cfi_def_cfa_offset 20
 692              		.cfi_offset 4, -20
 693              		.cfi_offset 5, -16
 694              		.cfi_offset 6, -12
 695              		.cfi_offset 7, -8
 696              		.cfi_offset 14, -4
 697 0002 264C     		ldr	r4, .L93
 698              	.LBB84:
 699              		.loc 2 368 0
 700 0004 2649     		ldr	r1, .L93+4
 701              	.LBE84:
 702              		.loc 2 365 0
 703 0006 2268     		ldr	r2, [r4]
 704              		.loc 2 366 0
 705 0008 264F     		ldr	r7, .L93+8
 706 000a 274B     		ldr	r3, .L93+12
 707              	.LBB85:
 708              		.loc 2 368 0
 709 000c 0978     		ldrb	r1, [r1]	@ zero_extendqisi2
 710              	.LBE85:
 711              		.loc 2 365 0
 712 000e 83B0     		sub	sp, sp, #12
 713              		.cfi_def_cfa_offset 32
 714 0010 03F52075 		add	r5, r3, #640
 715              		.loc 2 365 0
 716 0014 0192     		str	r2, [sp, #4]
 717              		.loc 2 366 0
 718 0016 0022     		movs	r2, #0
 719              	.LBB86:
 720              		.loc 2 368 0
 721 0018 1646     		mov	r6, r2
 722              	.LBE86:
 723              		.loc 2 366 0
 724 001a 3A80     		strh	r2, [r7]	@ movhi
 725              	.LVL53:
 726              	.L67:
 727              	.LBB87:
 728              		.loc 2 368 0
 729 001c 13F8010F 		ldrb	r0, [r3, #1]!	@ zero_extendqisi2
 730              	.LVL54:
 731 0020 8842     		cmp	r0, r1
 732 0022 02D9     		bls	.L66
 733              		.loc 2 369 0
 734 0024 0132     		adds	r2, r2, #1
 735 0026 92B2     		uxth	r2, r2
 736 0028 0126     		movs	r6, #1
 737              	.L66:
 738              	.LVL55:
 739              		.loc 2 367 0 discriminator 2
 740 002a AB42     		cmp	r3, r5
 741 002c F6D1     		bne	.L67
ARM GAS  C:\Users\me\AppData\Local\Temp\ccohu0Ck.s 			page 14


 742 002e 5EBB     		cbnz	r6, .L89
 743              	.L68:
 744              	.LBE87:
 745              	.LBB88:
 746              		.loc 2 375 0
 747 0030 1E4A     		ldr	r2, .L93+16
 748              	.LBE88:
 749              		.loc 2 373 0
 750 0032 DFF888C0 		ldr	ip, .L93+32
 751 0036 1E4B     		ldr	r3, .L93+20
 752              	.LVL56:
 753              	.LBB89:
 754              		.loc 2 375 0
 755 0038 1678     		ldrb	r6, [r2]	@ zero_extendqisi2
 756              	.LBE89:
 757              		.loc 2 373 0
 758 003a 0022     		movs	r2, #0
 759              	.LBB90:
 760              		.loc 2 375 0
 761 003c 1746     		mov	r7, r2
 762              	.LBE90:
 763              		.loc 2 373 0
 764 003e ACF80020 		strh	r2, [ip]	@ movhi
 765              	.LVL57:
 766 0042 03F52075 		add	r5, r3, #640
 767              	.LVL58:
 768              	.L70:
 769              	.LBB91:
 770              		.loc 2 375 0
 771 0046 13F8010F 		ldrb	r0, [r3, #1]!	@ zero_extendqisi2
 772              	.LVL59:
 773 004a B042     		cmp	r0, r6
 774 004c 02D9     		bls	.L69
 775              		.loc 2 376 0
 776 004e 0132     		adds	r2, r2, #1
 777 0050 92B2     		uxth	r2, r2
 778 0052 0127     		movs	r7, #1
 779              	.L69:
 780              	.LVL60:
 781              		.loc 2 374 0 discriminator 2
 782 0054 AB42     		cmp	r3, r5
 783 0056 F6D1     		bne	.L70
 784 0058 E7B9     		cbnz	r7, .L90
 785              	.L71:
 786              	.LBE91:
 787              		.loc 2 380 0
 788 005a 164F     		ldr	r7, .L93+24
 789 005c 164B     		ldr	r3, .L93+28
 790              	.LVL61:
 791 005e 0026     		movs	r6, #0
 792 0060 3E80     		strh	r6, [r7]	@ movhi
 793              	.LVL62:
 794 0062 3246     		mov	r2, r6
 795 0064 03F52075 		add	r5, r3, #640
 796              	.LVL63:
 797              	.L73:
 798              	.LBB92:
ARM GAS  C:\Users\me\AppData\Local\Temp\ccohu0Ck.s 			page 15


 799              		.loc 2 382 0
 800 0068 13F8010F 		ldrb	r0, [r3, #1]!	@ zero_extendqisi2
 801              	.LVL64:
 802 006c 8842     		cmp	r0, r1
 803 006e 02D9     		bls	.L72
 804              		.loc 2 383 0
 805 0070 0132     		adds	r2, r2, #1
 806 0072 92B2     		uxth	r2, r2
 807 0074 0126     		movs	r6, #1
 808              	.L72:
 809              	.LVL65:
 810              		.loc 2 381 0 discriminator 2
 811 0076 AB42     		cmp	r3, r5
 812 0078 F6D1     		bne	.L73
 813 007a 4EB9     		cbnz	r6, .L91
 814              	.L65:
 815              	.LBE92:
 816              		.loc 2 387 0
 817 007c 019A     		ldr	r2, [sp, #4]
 818 007e 2368     		ldr	r3, [r4]
 819              	.LVL66:
 820 0080 9A42     		cmp	r2, r3
 821 0082 03D1     		bne	.L92
 822 0084 03B0     		add	sp, sp, #12
 823              		.cfi_remember_state
 824              		.cfi_def_cfa_offset 20
 825              		@ sp needed
 826 0086 F0BD     		pop	{r4, r5, r6, r7, pc}
 827              	.LVL67:
 828              	.L89:
 829              		.cfi_restore_state
 830 0088 3A80     		strh	r2, [r7]	@ movhi
 831 008a D1E7     		b	.L68
 832              	.LVL68:
 833              	.L92:
 834 008c FFF7FEFF 		bl	__stack_chk_fail
 835              	.LVL69:
 836              	.L91:
 837 0090 3A80     		strh	r2, [r7]	@ movhi
 838 0092 F3E7     		b	.L65
 839              	.LVL70:
 840              	.L90:
 841 0094 ACF80020 		strh	r2, [ip]	@ movhi
 842 0098 DFE7     		b	.L71
 843              	.L94:
 844 009a 00BF     		.align	2
 845              	.L93:
 846 009c 00000000 		.word	__stack_chk_guard
 847 00a0 00000000 		.word	.LANCHOR9
 848 00a4 00000000 		.word	.LANCHOR8
 849 00a8 FFFFFFFF 		.word	.LANCHOR10-1
 850 00ac 00000000 		.word	.LANCHOR12
 851 00b0 FFFFFFFF 		.word	.LANCHOR13-1
 852 00b4 00000000 		.word	.LANCHOR14
 853 00b8 FFFFFFFF 		.word	.LANCHOR15-1
 854 00bc 00000000 		.word	.LANCHOR11
 855              		.cfi_endproc
ARM GAS  C:\Users\me\AppData\Local\Temp\ccohu0Ck.s 			page 16


 856              	.LFE263:
 857              		.size	check_threshold, .-check_threshold
 858              		.section	.text.calc_max,"ax",%progbits
 859              		.align	1
 860              		.p2align 4,,15
 861              		.global	calc_max
 862              		.syntax unified
 863              		.thumb
 864              		.thumb_func
 865              		.fpu fpv4-sp-d16
 866              		.type	calc_max, %function
 867              	calc_max:
 868              	.LFB264:
 869              		.loc 2 389 0
 870              		.cfi_startproc
 871              		@ args = 0, pretend = 0, frame = 8
 872              		@ frame_needed = 0, uses_anonymous_args = 0
 873 0000 10B5     		push	{r4, lr}
 874              		.cfi_def_cfa_offset 8
 875              		.cfi_offset 4, -8
 876              		.cfi_offset 14, -4
 877 0002 194C     		ldr	r4, .L105
 878 0004 194B     		ldr	r3, .L105+4
 879 0006 2268     		ldr	r2, [r4]
 880 0008 82B0     		sub	sp, sp, #8
 881              		.cfi_def_cfa_offset 16
 882 000a 03F52070 		add	r0, r3, #640
 883              		.loc 2 389 0
 884 000e 0192     		str	r2, [sp, #4]
 885              	.LVL71:
 886              		.loc 2 391 0
 887 0010 0022     		movs	r2, #0
 888              	.LVL72:
 889              	.L96:
 890 0012 13F8011F 		ldrb	r1, [r3, #1]!	@ zero_extendqisi2
 891              	.LVL73:
 892 0016 8A42     		cmp	r2, r1
 893 0018 38BF     		it	cc
 894 001a 0A46     		movcc	r2, r1
 895              	.LVL74:
 896              	.LBB93:
 897              		.loc 2 392 0
 898 001c 9842     		cmp	r0, r3
 899 001e F8D1     		bne	.L96
 900              	.LBE93:
 901              		.loc 2 397 0
 902 0020 1349     		ldr	r1, .L105+8
 903 0022 144B     		ldr	r3, .L105+12
 904              	.LVL75:
 905 0024 0A70     		strb	r2, [r1]
 906              	.LVL76:
 907 0026 03F52070 		add	r0, r3, #640
 908              		.loc 2 399 0
 909 002a 0022     		movs	r2, #0
 910              	.LVL77:
 911              	.L97:
 912 002c 13F8011F 		ldrb	r1, [r3, #1]!	@ zero_extendqisi2
ARM GAS  C:\Users\me\AppData\Local\Temp\ccohu0Ck.s 			page 17


 913              	.LVL78:
 914 0030 8A42     		cmp	r2, r1
 915 0032 38BF     		it	cc
 916 0034 0A46     		movcc	r2, r1
 917              	.LVL79:
 918              	.LBB94:
 919              		.loc 2 400 0
 920 0036 9842     		cmp	r0, r3
 921 0038 F8D1     		bne	.L97
 922              	.LBE94:
 923              		.loc 2 405 0
 924 003a 0F49     		ldr	r1, .L105+16
 925 003c 0F4B     		ldr	r3, .L105+20
 926              	.LVL80:
 927 003e 0A70     		strb	r2, [r1]
 928              	.LVL81:
 929 0040 03F52070 		add	r0, r3, #640
 930              		.loc 2 407 0
 931 0044 0022     		movs	r2, #0
 932              	.LVL82:
 933              	.L98:
 934 0046 13F8011F 		ldrb	r1, [r3, #1]!	@ zero_extendqisi2
 935              	.LVL83:
 936 004a 8A42     		cmp	r2, r1
 937 004c 38BF     		it	cc
 938 004e 0A46     		movcc	r2, r1
 939              	.LVL84:
 940              	.LBB95:
 941              		.loc 2 408 0
 942 0050 9842     		cmp	r0, r3
 943 0052 F8D1     		bne	.L98
 944              	.LBE95:
 945              		.loc 2 415 0
 946 0054 0199     		ldr	r1, [sp, #4]
 947 0056 2368     		ldr	r3, [r4]
 948              	.LVL85:
 949              		.loc 2 413 0
 950 0058 0948     		ldr	r0, .L105+24
 951              		.loc 2 415 0
 952 005a 9942     		cmp	r1, r3
 953              		.loc 2 413 0
 954 005c 0270     		strb	r2, [r0]
 955              		.loc 2 415 0
 956 005e 01D1     		bne	.L104
 957 0060 02B0     		add	sp, sp, #8
 958              		.cfi_remember_state
 959              		.cfi_def_cfa_offset 8
 960              		@ sp needed
 961 0062 10BD     		pop	{r4, pc}
 962              	.L104:
 963              		.cfi_restore_state
 964 0064 FFF7FEFF 		bl	__stack_chk_fail
 965              	.LVL86:
 966              	.L106:
 967              		.align	2
 968              	.L105:
 969 0068 00000000 		.word	__stack_chk_guard
ARM GAS  C:\Users\me\AppData\Local\Temp\ccohu0Ck.s 			page 18


 970 006c FFFFFFFF 		.word	.LANCHOR10-1
 971 0070 00000000 		.word	.LANCHOR16
 972 0074 FFFFFFFF 		.word	.LANCHOR15-1
 973 0078 00000000 		.word	.LANCHOR17
 974 007c FFFFFFFF 		.word	.LANCHOR13-1
 975 0080 00000000 		.word	.LANCHOR18
 976              		.cfi_endproc
 977              	.LFE264:
 978              		.size	calc_max, .-calc_max
 979              		.section	.text.get_color,"ax",%progbits
 980              		.align	1
 981              		.p2align 4,,15
 982              		.global	get_color
 983              		.syntax unified
 984              		.thumb
 985              		.thumb_func
 986              		.fpu fpv4-sp-d16
 987              		.type	get_color, %function
 988              	get_color:
 989              	.LFB265:
 990              		.loc 2 417 0
 991              		.cfi_startproc
 992              		@ args = 0, pretend = 0, frame = 8
 993              		@ frame_needed = 0, uses_anonymous_args = 0
 994 0000 30B5     		push	{r4, r5, lr}
 995              		.cfi_def_cfa_offset 12
 996              		.cfi_offset 4, -12
 997              		.cfi_offset 5, -8
 998              		.cfi_offset 14, -4
 999              		.loc 2 420 0
 1000 0002 1048     		ldr	r0, .L111
 1001 0004 104D     		ldr	r5, .L111+4
 1002 0006 0088     		ldrh	r0, [r0]
 1003 0008 2D88     		ldrh	r5, [r5]
 1004 000a 104B     		ldr	r3, .L111+8
 1005 000c 104A     		ldr	r2, .L111+12
 1006 000e 114C     		ldr	r4, .L111+16
 1007 0010 1149     		ldr	r1, .L111+20
 1008 0012 1B78     		ldrb	r3, [r3]	@ zero_extendqisi2
 1009 0014 1278     		ldrb	r2, [r2]	@ zero_extendqisi2
 1010 0016 2488     		ldrh	r4, [r4]
 1011 0018 0978     		ldrb	r1, [r1]	@ zero_extendqisi2
 1012              		.loc 2 417 0
 1013 001a 87B0     		sub	sp, sp, #28
 1014              		.cfi_def_cfa_offset 40
 1015              		.loc 2 420 0
 1016 001c CDE90105 		strd	r0, r5, [sp, #4]
 1017 0020 0394     		str	r4, [sp, #12]
 1018              		.loc 2 417 0
 1019 0022 0E4C     		ldr	r4, .L111+24
 1020              		.loc 2 420 0
 1021 0024 0091     		str	r1, [sp]
 1022              		.loc 2 417 0
 1023 0026 2568     		ldr	r5, [r4]
 1024              		.loc 2 420 0
 1025 0028 0D49     		ldr	r1, .L111+28
 1026 002a 0E48     		ldr	r0, .L111+32
ARM GAS  C:\Users\me\AppData\Local\Temp\ccohu0Ck.s 			page 19


 1027              		.loc 2 417 0
 1028 002c 0595     		str	r5, [sp, #20]
 1029              	.LVL87:
 1030              		.loc 2 420 0
 1031 002e FFF7FEFF 		bl	chprintf.constprop.0
 1032              	.LVL88:
 1033              		.loc 2 425 0
 1034 0032 059A     		ldr	r2, [sp, #20]
 1035 0034 2368     		ldr	r3, [r4]
 1036 0036 9A42     		cmp	r2, r3
 1037 0038 02D1     		bne	.L110
 1038 003a 0020     		movs	r0, #0
 1039 003c 07B0     		add	sp, sp, #28
 1040              		.cfi_remember_state
 1041              		.cfi_def_cfa_offset 12
 1042              		@ sp needed
 1043 003e 30BD     		pop	{r4, r5, pc}
 1044              	.L110:
 1045              		.cfi_restore_state
 1046 0040 FFF7FEFF 		bl	__stack_chk_fail
 1047              	.LVL89:
 1048              	.L112:
 1049              		.align	2
 1050              	.L111:
 1051 0044 00000000 		.word	.LANCHOR8
 1052 0048 00000000 		.word	.LANCHOR11
 1053 004c 00000000 		.word	.LANCHOR18
 1054 0050 00000000 		.word	.LANCHOR16
 1055 0054 00000000 		.word	.LANCHOR14
 1056 0058 00000000 		.word	.LANCHOR17
 1057 005c 00000000 		.word	__stack_chk_guard
 1058 0060 00000000 		.word	.LC0
 1059 0064 00000000 		.word	SD3
 1060              		.cfi_endproc
 1061              	.LFE265:
 1062              		.size	get_color, .-get_color
 1063              		.section	.text.ProcessImage,"ax",%progbits
 1064              		.align	1
 1065              		.p2align 4,,15
 1066              		.syntax unified
 1067              		.thumb
 1068              		.thumb_func
 1069              		.fpu fpv4-sp-d16
 1070              		.type	ProcessImage, %function
 1071              	ProcessImage:
 1072              	.LFB259:
 1073              		.loc 2 152 0
 1074              		.cfi_startproc
 1075              		@ args = 0, pretend = 0, frame = 16
 1076              		@ frame_needed = 0, uses_anonymous_args = 0
 1077              	.LVL90:
 1078 0000 2DE9F04F 		push	{r4, r5, r6, r7, r8, r9, r10, fp, lr}
 1079              		.cfi_def_cfa_offset 36
 1080              		.cfi_offset 4, -36
 1081              		.cfi_offset 5, -32
 1082              		.cfi_offset 6, -28
 1083              		.cfi_offset 7, -24
ARM GAS  C:\Users\me\AppData\Local\Temp\ccohu0Ck.s 			page 20


 1084              		.cfi_offset 8, -20
 1085              		.cfi_offset 9, -16
 1086              		.cfi_offset 10, -12
 1087              		.cfi_offset 11, -8
 1088              		.cfi_offset 14, -4
 1089 0004 2DED028B 		vpush.64	{d8}
 1090              		.cfi_def_cfa_offset 44
 1091              		.cfi_offset 80, -44
 1092              		.cfi_offset 81, -40
 1093              	.LBB96:
 1094              	.LBB97:
 1095              		.loc 3 135 0
 1096 0008 714A     		ldr	r2, .L148
 1097              	.LBE97:
 1098              	.LBE96:
 1099              		.loc 2 152 0
 1100 000a 724B     		ldr	r3, .L148+4
 1101              	.LBB100:
 1102              	.LBB98:
 1103              		.loc 3 135 0
 1104 000c 9269     		ldr	r2, [r2, #24]
 1105 000e 7249     		ldr	r1, .L148+8
 1106              	.LBE98:
 1107              	.LBE100:
 1108              		.loc 2 152 0
 1109 0010 1B68     		ldr	r3, [r3]
 1110 0012 DFF8D881 		ldr	r8, .L148+28
 1111 0016 714F     		ldr	r7, .L148+12
 1112 0018 714E     		ldr	r6, .L148+16
 1113 001a DFF8D8A1 		ldr	r10, .L148+36
 1114 001e DFF8D891 		ldr	r9, .L148+40
 1115              	.LBB101:
 1116              		.loc 2 334 0
 1117 0022 9FED708A 		vldr.32	s16, .L148+20
 1118              	.LBE101:
 1119              	.LBB106:
 1120              	.LBB99:
 1121              		.loc 3 135 0
 1122 0026 9161     		str	r1, [r2, #24]
 1123              	.LBE99:
 1124              	.LBE106:
 1125              		.loc 2 152 0
 1126 0028 85B0     		sub	sp, sp, #20
 1127              		.cfi_def_cfa_offset 64
 1128              		.loc 2 152 0
 1129 002a 0393     		str	r3, [sp, #12]
 1130              	.LVL91:
 1131              	.L142:
 1132              	.LBB107:
 1133              	.LBB102:
 1134              	.LBB103:
 1135              		.loc 5 143 0
 1136 002c 6E48     		ldr	r0, .L148+24
 1137 002e FFF7FEFF 		bl	chSemWait
 1138              	.LVL92:
 1139              	.LBE103:
 1140              	.LBE102:
ARM GAS  C:\Users\me\AppData\Local\Temp\ccohu0Ck.s 			page 21


 1141              		.loc 2 168 0
 1142 0032 FFF7FEFF 		bl	dcmi_get_last_image_ptr
 1143              	.LVL93:
 1144 0036 0446     		mov	r4, r0
 1145              	.LVL94:
 1146              		.loc 2 170 0
 1147 0038 FFF7FEFF 		bl	get_selector
 1148              	.LVL95:
 1149              		.loc 2 171 0
 1150 003c 0F28     		cmp	r0, #15
 1151 003e 00F2BF80 		bhi	.L114
 1152 0042 DFE800F0 		tbb	[pc, r0]
 1153              	.L116:
 1154 0046 B6       		.byte	(.L115-.L116)/2
 1155 0047 AF       		.byte	(.L117-.L116)/2
 1156 0048 A8       		.byte	(.L118-.L116)/2
 1157 0049 A1       		.byte	(.L119-.L116)/2
 1158 004a 9A       		.byte	(.L120-.L116)/2
 1159 004b 93       		.byte	(.L121-.L116)/2
 1160 004c 8C       		.byte	(.L122-.L116)/2
 1161 004d 85       		.byte	(.L123-.L116)/2
 1162 004e 7E       		.byte	(.L124-.L116)/2
 1163 004f 77       		.byte	(.L125-.L116)/2
 1164 0050 70       		.byte	(.L126-.L116)/2
 1165 0051 69       		.byte	(.L127-.L116)/2
 1166 0052 62       		.byte	(.L128-.L116)/2
 1167 0053 5B       		.byte	(.L129-.L116)/2
 1168 0054 54       		.byte	(.L130-.L116)/2
 1169 0055 08       		.byte	(.L131-.L116)/2
 1170              		.p2align 1
 1171              	.L131:
 1172              		.loc 2 234 0
 1173 0056 1E20     		movs	r0, #30
 1174              	.LVL96:
 1175              		.loc 2 235 0
 1176 0058 4FF03D0C 		mov	ip, #61
 1177              		.loc 2 234 0
 1178 005c 3870     		strb	r0, [r7]
 1179              		.loc 2 235 0
 1180 005e 86F800C0 		strb	ip, [r6]
 1181              	.L132:
 1182              		.loc 2 188 0
 1183 0062 4FF0000B 		mov	fp, #0
 1184              	.LBB104:
 1185              	.LBB105:
 1186              		.loc 2 256 0
 1187 0066 5D46     		mov	r5, fp
 1188 0068 02E0     		b	.L133
 1189              	.LVL97:
 1190              	.L140:
 1191 006a 3878     		ldrb	r0, [r7]	@ zero_extendqisi2
 1192 006c 96F800C0 		ldrb	ip, [r6]	@ zero_extendqisi2
 1193              	.L133:
 1194              	.LVL98:
 1195              		.loc 2 246 0
 1196 0070 14F80B10 		ldrb	r1, [r4, fp]	@ zero_extendqisi2
 1197              		.loc 2 248 0
ARM GAS  C:\Users\me\AppData\Local\Temp\ccohu0Ck.s 			page 22


 1198 0074 04EB0B02 		add	r2, r4, fp
 1199 0078 CB00     		lsls	r3, r1, #3
 1200 007a 5278     		ldrb	r2, [r2, #1]	@ zero_extendqisi2
 1201 007c CBF34E0E 		ubfx	lr, fp, #1, #15
 1202              		.loc 2 246 0
 1203 0080 C908     		lsrs	r1, r1, #3
 1204              	.LVL99:
 1205              		.loc 2 248 0
 1206 0082 03F03803 		and	r3, r3, #56
 1207 0086 03EB5213 		add	r3, r3, r2, lsr #5
 1208              	.LVL100:
 1209              		.loc 2 253 0
 1210 008a 8142     		cmp	r1, r0
 1211              		.loc 2 250 0
 1212 008c 02F01F02 		and	r2, r2, #31
 1213              	.LVL101:
 1214              		.loc 2 254 0
 1215 0090 8CBF     		ite	hi
 1216 0092 0AF80E10 		strbhi	r1, [r10, lr]
 1217              		.loc 2 256 0
 1218 0096 0AF80E50 		strbls	r5, [r10, lr]
 1219              		.loc 2 258 0
 1220 009a 8242     		cmp	r2, r0
 1221              		.loc 2 259 0
 1222 009c 8CBF     		ite	hi
 1223 009e 09F80E20 		strbhi	r2, [r9, lr]
 1224              		.loc 2 261 0
 1225 00a2 09F80E50 		strbls	r5, [r9, lr]
 1226 00a6 0BF1020B 		add	fp, fp, #2
 1227              	.LVL102:
 1228              		.loc 2 263 0
 1229 00aa 6345     		cmp	r3, ip
 1230              		.loc 2 264 0
 1231 00ac 8CBF     		ite	hi
 1232 00ae 08F80E30 		strbhi	r3, [r8, lr]
 1233              		.loc 2 266 0
 1234 00b2 08F80E50 		strbls	r5, [r8, lr]
 1235              		.loc 2 269 0
 1236 00b6 FFF7FEFF 		bl	check_threshold
 1237              	.LVL103:
 1238              		.loc 2 270 0
 1239 00ba FFF7FEFF 		bl	calc_max
 1240              	.LVL104:
 1241              		.loc 2 271 0
 1242 00be FFF7FEFF 		bl	get_color
 1243              	.LVL105:
 1244              	.LBE105:
 1245              		.loc 2 244 0
 1246 00c2 BBF5A06F 		cmp	fp, #1280
 1247 00c6 D0D1     		bne	.L140
 1248              	.LBE104:
 1249              		.loc 2 330 0
 1250 00c8 4848     		ldr	r0, .L148+28
 1251 00ca FFF7FEFF 		bl	extract_line_width
 1252              	.LVL106:
 1253              		.loc 2 333 0
 1254 00ce 0190     		str	r0, [sp, #4]
ARM GAS  C:\Users\me\AppData\Local\Temp\ccohu0Ck.s 			page 23


 1255 00d0 40B1     		cbz	r0, .L141
 1256              		.loc 2 334 0
 1257 00d2 07EE900A 		vmov	s15, r0	@ int
 1258 00d6 F8EEE77A 		vcvt.f32.s32	s15, s15
 1259 00da 454B     		ldr	r3, .L148+32
 1260 00dc 88EE277A 		vdiv.f32	s14, s16, s15
 1261 00e0 83ED007A 		vstr.32	s14, [r3]
 1262              	.L141:
 1263              		.loc 2 346 0
 1264 00e4 4FF47A70 		mov	r0, #1000
 1265              	.LVL107:
 1266 00e8 FFF7FEFF 		bl	chThdSleep
 1267              	.LVL108:
 1268              	.LBE107:
 1269              		.loc 2 164 0
 1270 00ec 9EE7     		b	.L142
 1271              	.LVL109:
 1272              	.L130:
 1273              	.LBB108:
 1274              		.loc 2 230 0
 1275 00ee 1D20     		movs	r0, #29
 1276              	.LVL110:
 1277              		.loc 2 231 0
 1278 00f0 4FF03C0C 		mov	ip, #60
 1279              		.loc 2 230 0
 1280 00f4 3870     		strb	r0, [r7]
 1281              		.loc 2 231 0
 1282 00f6 86F800C0 		strb	ip, [r6]
 1283              		.loc 2 232 0
 1284 00fa B2E7     		b	.L132
 1285              	.LVL111:
 1286              	.L129:
 1287              		.loc 2 226 0
 1288 00fc 1C20     		movs	r0, #28
 1289              	.LVL112:
 1290              		.loc 2 227 0
 1291 00fe 4FF0390C 		mov	ip, #57
 1292              		.loc 2 226 0
 1293 0102 3870     		strb	r0, [r7]
 1294              		.loc 2 227 0
 1295 0104 86F800C0 		strb	ip, [r6]
 1296              		.loc 2 228 0
 1297 0108 ABE7     		b	.L132
 1298              	.LVL113:
 1299              	.L128:
 1300              		.loc 2 222 0
 1301 010a 1B20     		movs	r0, #27
 1302              	.LVL114:
 1303              		.loc 2 223 0
 1304 010c 4FF0360C 		mov	ip, #54
 1305              		.loc 2 222 0
 1306 0110 3870     		strb	r0, [r7]
 1307              		.loc 2 223 0
 1308 0112 86F800C0 		strb	ip, [r6]
 1309              		.loc 2 224 0
 1310 0116 A4E7     		b	.L132
 1311              	.LVL115:
ARM GAS  C:\Users\me\AppData\Local\Temp\ccohu0Ck.s 			page 24


 1312              	.L127:
 1313              		.loc 2 218 0
 1314 0118 1920     		movs	r0, #25
 1315              	.LVL116:
 1316              		.loc 2 219 0
 1317 011a 4FF0320C 		mov	ip, #50
 1318              		.loc 2 218 0
 1319 011e 3870     		strb	r0, [r7]
 1320              		.loc 2 219 0
 1321 0120 86F800C0 		strb	ip, [r6]
 1322              		.loc 2 220 0
 1323 0124 9DE7     		b	.L132
 1324              	.LVL117:
 1325              	.L126:
 1326              		.loc 2 214 0
 1327 0126 1820     		movs	r0, #24
 1328              	.LVL118:
 1329              		.loc 2 215 0
 1330 0128 4FF0300C 		mov	ip, #48
 1331              		.loc 2 214 0
 1332 012c 3870     		strb	r0, [r7]
 1333              		.loc 2 215 0
 1334 012e 86F800C0 		strb	ip, [r6]
 1335              		.loc 2 216 0
 1336 0132 96E7     		b	.L132
 1337              	.LVL119:
 1338              	.L125:
 1339              		.loc 2 210 0
 1340 0134 1620     		movs	r0, #22
 1341              	.LVL120:
 1342              		.loc 2 211 0
 1343 0136 4FF02D0C 		mov	ip, #45
 1344              		.loc 2 210 0
 1345 013a 3870     		strb	r0, [r7]
 1346              		.loc 2 211 0
 1347 013c 86F800C0 		strb	ip, [r6]
 1348              		.loc 2 212 0
 1349 0140 8FE7     		b	.L132
 1350              	.LVL121:
 1351              	.L124:
 1352              		.loc 2 206 0
 1353 0142 1520     		movs	r0, #21
 1354              	.LVL122:
 1355              		.loc 2 207 0
 1356 0144 4FF0290C 		mov	ip, #41
 1357              		.loc 2 206 0
 1358 0148 3870     		strb	r0, [r7]
 1359              		.loc 2 207 0
 1360 014a 86F800C0 		strb	ip, [r6]
 1361              		.loc 2 208 0
 1362 014e 88E7     		b	.L132
 1363              	.LVL123:
 1364              	.L123:
 1365              		.loc 2 202 0
 1366 0150 1320     		movs	r0, #19
 1367              	.LVL124:
 1368              		.loc 2 203 0
ARM GAS  C:\Users\me\AppData\Local\Temp\ccohu0Ck.s 			page 25


 1369 0152 4FF0260C 		mov	ip, #38
 1370              		.loc 2 202 0
 1371 0156 3870     		strb	r0, [r7]
 1372              		.loc 2 203 0
 1373 0158 86F800C0 		strb	ip, [r6]
 1374              		.loc 2 204 0
 1375 015c 81E7     		b	.L132
 1376              	.LVL125:
 1377              	.L122:
 1378              		.loc 2 198 0
 1379 015e 1220     		movs	r0, #18
 1380              	.LVL126:
 1381              		.loc 2 199 0
 1382 0160 4FF0230C 		mov	ip, #35
 1383              		.loc 2 198 0
 1384 0164 3870     		strb	r0, [r7]
 1385              		.loc 2 199 0
 1386 0166 86F800C0 		strb	ip, [r6]
 1387              		.loc 2 200 0
 1388 016a 7AE7     		b	.L132
 1389              	.LVL127:
 1390              	.L121:
 1391              		.loc 2 194 0
 1392 016c 1020     		movs	r0, #16
 1393              	.LVL128:
 1394              		.loc 2 195 0
 1395 016e 4FF0200C 		mov	ip, #32
 1396              		.loc 2 194 0
 1397 0172 3870     		strb	r0, [r7]
 1398              		.loc 2 195 0
 1399 0174 86F800C0 		strb	ip, [r6]
 1400              		.loc 2 196 0
 1401 0178 73E7     		b	.L132
 1402              	.LVL129:
 1403              	.L120:
 1404              		.loc 2 190 0
 1405 017a 0E20     		movs	r0, #14
 1406              	.LVL130:
 1407              		.loc 2 191 0
 1408 017c 4FF01D0C 		mov	ip, #29
 1409              		.loc 2 190 0
 1410 0180 3870     		strb	r0, [r7]
 1411              		.loc 2 191 0
 1412 0182 86F800C0 		strb	ip, [r6]
 1413              		.loc 2 192 0
 1414 0186 6CE7     		b	.L132
 1415              	.LVL131:
 1416              	.L119:
 1417              		.loc 2 186 0
 1418 0188 0D20     		movs	r0, #13
 1419              	.LVL132:
 1420              		.loc 2 187 0
 1421 018a 4FF01A0C 		mov	ip, #26
 1422              		.loc 2 186 0
 1423 018e 3870     		strb	r0, [r7]
 1424              		.loc 2 187 0
 1425 0190 86F800C0 		strb	ip, [r6]
ARM GAS  C:\Users\me\AppData\Local\Temp\ccohu0Ck.s 			page 26


 1426              		.loc 2 188 0
 1427 0194 65E7     		b	.L132
 1428              	.LVL133:
 1429              	.L118:
 1430              		.loc 2 182 0
 1431 0196 0B20     		movs	r0, #11
 1432              	.LVL134:
 1433              		.loc 2 183 0
 1434 0198 4FF0170C 		mov	ip, #23
 1435              		.loc 2 182 0
 1436 019c 3870     		strb	r0, [r7]
 1437              		.loc 2 183 0
 1438 019e 86F800C0 		strb	ip, [r6]
 1439              		.loc 2 184 0
 1440 01a2 5EE7     		b	.L132
 1441              	.LVL135:
 1442              	.L117:
 1443              		.loc 2 178 0
 1444 01a4 0A20     		movs	r0, #10
 1445              	.LVL136:
 1446              		.loc 2 179 0
 1447 01a6 4FF0130C 		mov	ip, #19
 1448              		.loc 2 178 0
 1449 01aa 3870     		strb	r0, [r7]
 1450              		.loc 2 179 0
 1451 01ac 86F800C0 		strb	ip, [r6]
 1452              		.loc 2 180 0
 1453 01b0 57E7     		b	.L132
 1454              	.LVL137:
 1455              	.L115:
 1456              		.loc 2 174 0
 1457 01b2 0820     		movs	r0, #8
 1458              	.LVL138:
 1459              		.loc 2 175 0
 1460 01b4 4FF0100C 		mov	ip, #16
 1461              		.loc 2 174 0
 1462 01b8 3870     		strb	r0, [r7]
 1463              		.loc 2 175 0
 1464 01ba 86F800C0 		strb	ip, [r6]
 1465              		.loc 2 176 0
 1466 01be 50E7     		b	.L132
 1467              	.LVL139:
 1468              	.L114:
 1469              		.loc 2 238 0
 1470 01c0 1820     		movs	r0, #24
 1471              	.LVL140:
 1472              		.loc 2 239 0
 1473 01c2 4FF02D0C 		mov	ip, #45
 1474              		.loc 2 238 0
 1475 01c6 3870     		strb	r0, [r7]
 1476              		.loc 2 239 0
 1477 01c8 86F800C0 		strb	ip, [r6]
 1478              		.loc 2 240 0
 1479 01cc 49E7     		b	.L132
 1480              	.L149:
 1481 01ce 00BF     		.align	2
 1482              	.L148:
ARM GAS  C:\Users\me\AppData\Local\Temp\ccohu0Ck.s 			page 27


 1483 01d0 00000000 		.word	ch
 1484 01d4 00000000 		.word	__stack_chk_guard
 1485 01d8 00000000 		.word	.LANCHOR19
 1486 01dc 00000000 		.word	.LANCHOR9
 1487 01e0 00000000 		.word	.LANCHOR12
 1488 01e4 0040C444 		.word	1153712128
 1489 01e8 00000000 		.word	.LANCHOR1
 1490 01ec 00000000 		.word	.LANCHOR13
 1491 01f0 00000000 		.word	.LANCHOR5
 1492 01f4 00000000 		.word	.LANCHOR10
 1493 01f8 00000000 		.word	.LANCHOR15
 1494              	.LBE108:
 1495              		.cfi_endproc
 1496              	.LFE259:
 1497              		.size	ProcessImage, .-ProcessImage
 1498              		.section	.bss.count_blue,"aw",%nobits
 1499              		.align	1
 1500              		.set	.LANCHOR14,. + 0
 1501              		.type	count_blue, %object
 1502              		.size	count_blue, 2
 1503              	count_blue:
 1504 0000 0000     		.space	2
 1505              		.section	.bss.count_green,"aw",%nobits
 1506              		.align	1
 1507              		.set	.LANCHOR11,. + 0
 1508              		.type	count_green, %object
 1509              		.size	count_green, 2
 1510              	count_green:
 1511 0000 0000     		.space	2
 1512              		.section	.bss.count_red,"aw",%nobits
 1513              		.align	1
 1514              		.set	.LANCHOR8,. + 0
 1515              		.type	count_red, %object
 1516              		.size	count_red, 2
 1517              	count_red:
 1518 0000 0000     		.space	2
 1519              		.section	.bss.distance_cm,"aw",%nobits
 1520              		.align	2
 1521              		.set	.LANCHOR5,. + 0
 1522              		.type	distance_cm, %object
 1523              		.size	distance_cm, 4
 1524              	distance_cm:
 1525 0000 00000000 		.space	4
 1526              		.section	.bss.image_blue,"aw",%nobits
 1527              		.align	2
 1528              		.set	.LANCHOR15,. + 0
 1529              		.type	image_blue, %object
 1530              		.size	image_blue, 640
 1531              	image_blue:
 1532 0000 00000000 		.space	640
 1532      00000000 
 1532      00000000 
 1532      00000000 
 1532      00000000 
 1533              		.section	.bss.image_green,"aw",%nobits
 1534              		.align	2
 1535              		.set	.LANCHOR13,. + 0
ARM GAS  C:\Users\me\AppData\Local\Temp\ccohu0Ck.s 			page 28


 1536              		.type	image_green, %object
 1537              		.size	image_green, 640
 1538              	image_green:
 1539 0000 00000000 		.space	640
 1539      00000000 
 1539      00000000 
 1539      00000000 
 1539      00000000 
 1540              		.section	.bss.image_red,"aw",%nobits
 1541              		.align	2
 1542              		.set	.LANCHOR10,. + 0
 1543              		.type	image_red, %object
 1544              		.size	image_red, 640
 1545              	image_red:
 1546 0000 00000000 		.space	640
 1546      00000000 
 1546      00000000 
 1546      00000000 
 1546      00000000 
 1547              		.section	.bss.max_blue,"aw",%nobits
 1548              		.set	.LANCHOR17,. + 0
 1549              		.type	max_blue, %object
 1550              		.size	max_blue, 1
 1551              	max_blue:
 1552 0000 00       		.space	1
 1553              		.section	.bss.max_green,"aw",%nobits
 1554              		.set	.LANCHOR18,. + 0
 1555              		.type	max_green, %object
 1556              		.size	max_green, 1
 1557              	max_green:
 1558 0000 00       		.space	1
 1559              		.section	.bss.max_red,"aw",%nobits
 1560              		.set	.LANCHOR16,. + 0
 1561              		.type	max_red, %object
 1562              		.size	max_red, 1
 1563              	max_red:
 1564 0000 00       		.space	1
 1565              		.section	.bss.waCaptureImage,"aw",%nobits
 1566              		.align	3
 1567              		.set	.LANCHOR7,. + 0
 1568              		.type	waCaptureImage, %object
 1569              		.size	waCaptureImage, 632
 1570              	waCaptureImage:
 1571 0000 00000000 		.space	632
 1571      00000000 
 1571      00000000 
 1571      00000000 
 1571      00000000 
 1572              		.section	.bss.waProcessImage,"aw",%nobits
 1573              		.align	3
 1574              		.set	.LANCHOR6,. + 0
 1575              		.type	waProcessImage, %object
 1576              		.size	waProcessImage, 1400
 1577              	waProcessImage:
 1578 0000 00000000 		.space	1400
 1578      00000000 
 1578      00000000 
ARM GAS  C:\Users\me\AppData\Local\Temp\ccohu0Ck.s 			page 29


 1578      00000000 
 1578      00000000 
 1579              		.section	.data.image_ready_sem,"aw",%progbits
 1580              		.align	2
 1581              		.set	.LANCHOR1,. + 0
 1582              		.type	image_ready_sem, %object
 1583              		.size	image_ready_sem, 12
 1584              	image_ready_sem:
 1585 0000 00000000 		.word	image_ready_sem
 1586 0004 00000000 		.word	image_ready_sem
 1587 0008 00000000 		.word	0
 1588              		.section	.data.last_width.11561,"aw",%progbits
 1589              		.align	1
 1590              		.set	.LANCHOR3,. + 0
 1591              		.type	last_width.11561, %object
 1592              		.size	last_width.11561, 2
 1593              	last_width.11561:
 1594 0000 9D00     		.short	157
 1595              		.section	.data.line_position,"aw",%progbits
 1596              		.align	1
 1597              		.set	.LANCHOR4,. + 0
 1598              		.type	line_position, %object
 1599              		.size	line_position, 2
 1600              	line_position:
 1601 0000 4001     		.short	320
 1602              		.section	.data.threshold_green,"aw",%progbits
 1603              		.set	.LANCHOR12,. + 0
 1604              		.type	threshold_green, %object
 1605              		.size	threshold_green, 1
 1606              	threshold_green:
 1607 0000 3D       		.byte	61
 1608              		.section	.data.threshold_red_blue,"aw",%progbits
 1609              		.set	.LANCHOR9,. + 0
 1610              		.type	threshold_red_blue, %object
 1611              		.size	threshold_red_blue, 1
 1612              	threshold_red_blue:
 1613 0000 1E       		.byte	30
 1614              		.section	.rodata.__FUNCTION__.11578,"a",%progbits
 1615              		.align	2
 1616              		.set	.LANCHOR0,. + 0
 1617              		.type	__FUNCTION__.11578, %object
 1618              		.size	__FUNCTION__.11578, 13
 1619              	__FUNCTION__.11578:
 1620 0000 43617074 		.ascii	"CaptureImage\000"
 1620      75726549 
 1620      6D616765 
 1620      00
 1621              		.section	.rodata.__FUNCTION__.11584,"a",%progbits
 1622              		.align	2
 1623              		.set	.LANCHOR19,. + 0
 1624              		.type	__FUNCTION__.11584, %object
 1625              		.size	__FUNCTION__.11584, 13
 1626              	__FUNCTION__.11584:
 1627 0000 50726F63 		.ascii	"ProcessImage\000"
 1627      65737349 
 1627      6D616765 
 1627      00
ARM GAS  C:\Users\me\AppData\Local\Temp\ccohu0Ck.s 			page 30


 1628              		.section	.rodata.__func__.7153,"a",%progbits
 1629              		.align	2
 1630              		.set	.LANCHOR2,. + 0
 1631              		.type	__func__.7153, %object
 1632              		.size	__func__.7153, 12
 1633              	__func__.7153:
 1634 0000 63685379 		.ascii	"chSysUnlock\000"
 1634      73556E6C 
 1634      6F636B00 
 1635              		.section	.rodata.chprintf.constprop.0.str1.4,"aMS",%progbits,1
 1636              		.align	2
 1637              	.LC0:
 1638 0000 2552204D 		.ascii	"%R Max =%-7d G Max =%-7d B Max=%-7d Red Count =%-7d"
 1638      6178203D 
 1638      252D3764 
 1638      2047204D 
 1638      6178203D 
 1639 0033 20477265 		.ascii	" Green Count=%-7d Blue Count =%-7d\015\012\012\000"
 1639      656E2043 
 1639      6F756E74 
 1639      3D252D37 
 1639      6420426C 
 1640              		.text
 1641              	.Letext0:
 1642              		.file 7 "c:\\eclipse_e-puck2\\tools\\gcc-arm-none-eabi-7-2017-q4-major-win32\\lib\\gcc\\arm-none-e
 1643              		.file 8 "c:\\eclipse_e-puck2\\tools\\gcc-arm-none-eabi-7-2017-q4-major-win32\\arm-none-eabi\\inclu
 1644              		.file 9 "c:\\eclipse_e-puck2\\tools\\gcc-arm-none-eabi-7-2017-q4-major-win32\\arm-none-eabi\\inclu
 1645              		.file 10 "../../lib/e-puck2_main-processor/ChibiOS//os/rt/ports/ARMCMx/compilers/GCC/chtypes.h"
 1646              		.file 11 "../../lib/e-puck2_main-processor/ChibiOS//os/rt/include/chsystypes.h"
 1647              		.file 12 "../../lib/e-puck2_main-processor/ChibiOS//os/rt/include/chschd.h"
 1648              		.file 13 "../../lib/e-puck2_main-processor/ChibiOS//os/ext/CMSIS/include/core_cm4.h"
 1649              		.file 14 "../../lib/e-puck2_main-processor/ChibiOS//os/ext/CMSIS/ST/system_stm32f4xx.h"
 1650              		.file 15 "../../lib/e-puck2_main-processor/ChibiOS//os/ext/CMSIS/ST/stm32f407xx.h"
 1651              		.file 16 "../../lib/e-puck2_main-processor/ChibiOS//os/rt/ports/ARMCMx/chcore.h"
 1652              		.file 17 "../../lib/e-puck2_main-processor/ChibiOS//os/rt/ports/ARMCMx/chcore_v7m.h"
 1653              		.file 18 "../../lib/e-puck2_main-processor/ChibiOS//os/rt/include/chdebug.h"
 1654              		.file 19 "../../lib/e-puck2_main-processor/ChibiOS//os/rt/include/chtm.h"
 1655              		.file 20 "../../lib/e-puck2_main-processor/ChibiOS//os/rt/include/chstats.h"
 1656              		.file 21 "../../lib/e-puck2_main-processor/ChibiOS//os/rt/include/chsem.h"
 1657              		.file 22 "../../lib/e-puck2_main-processor/ChibiOS//os/rt/include/chmtx.h"
 1658              		.file 23 "../../lib/e-puck2_main-processor/ChibiOS//os/rt/include/chevents.h"
 1659              		.file 24 "../../lib/e-puck2_main-processor/ChibiOS//os/rt/include/chqueues.h"
 1660              		.file 25 "../../lib/e-puck2_main-processor/ChibiOS//os/rt/include/chstreams.h"
 1661              		.file 26 "../../lib/e-puck2_main-processor/ChibiOS//os/hal/ports/STM32/STM32F4xx/stm32_dma.h"
 1662              		.file 27 "../../lib/e-puck2_main-processor/ChibiOS//os/hal/include/hal_ioblock.h"
 1663              		.file 28 "../../lib/e-puck2_main-processor/ChibiOS//os/hal/ports/STM32/LLD/GPIOv2/pal_lld.h"
 1664              		.file 29 "../../lib/e-puck2_main-processor/ChibiOS//os/hal/include/adc.h"
 1665              		.file 30 "../../lib/e-puck2_main-processor/ChibiOS//os/hal/ports/STM32/STM32F4xx/adc_lld.h"
 1666              		.file 31 "../../lib/e-puck2_main-processor/ChibiOS//os/hal/include/can.h"
 1667              		.file 32 "../../lib/e-puck2_main-processor/ChibiOS//os/hal/ports/STM32/LLD/can_lld.h"
 1668              		.file 33 "../../lib/e-puck2_main-processor/ChibiOS//os/hal/include/dac.h"
 1669              		.file 34 "../../lib/e-puck2_main-processor/ChibiOS//os/hal/ports/STM32/LLD/DACv1/dac_lld.h"
 1670              		.file 35 "../../lib/e-puck2_main-processor/ChibiOS//os/hal/include/ext.h"
 1671              		.file 36 "../../lib/e-puck2_main-processor/ChibiOS//os/hal/ports/STM32/LLD/ext_lld.h"
 1672              		.file 37 "../../lib/e-puck2_main-processor/ChibiOS//os/hal/include/gpt.h"
 1673              		.file 38 "../../lib/e-puck2_main-processor/ChibiOS//os/hal/ports/STM32/LLD/TIMv1/gpt_lld.h"
 1674              		.file 39 "../../lib/e-puck2_main-processor/ChibiOS//os/hal/ports/STM32/LLD/TIMv1/stm32_tim.h"
ARM GAS  C:\Users\me\AppData\Local\Temp\ccohu0Ck.s 			page 31


 1675              		.file 40 "../../lib/e-puck2_main-processor/ChibiOS//os/hal/include/i2c.h"
 1676              		.file 41 "../../lib/e-puck2_main-processor/ChibiOS//os/hal/ports/STM32/LLD/I2Cv1/i2c_lld.h"
 1677              		.file 42 "../../lib/e-puck2_main-processor/ChibiOS//os/hal/include/i2s.h"
 1678              		.file 43 "../../lib/e-puck2_main-processor/ChibiOS//os/hal/ports/STM32/LLD/SPIv1/i2s_lld.h"
 1679              		.file 44 "../../lib/e-puck2_main-processor/ChibiOS//os/hal/include/pwm.h"
 1680              		.file 45 "../../lib/e-puck2_main-processor/ChibiOS//os/hal/ports/STM32/LLD/TIMv1/pwm_lld.h"
 1681              		.file 46 "../../lib/e-puck2_main-processor/ChibiOS//os/hal/include/serial.h"
 1682              		.file 47 "../../lib/e-puck2_main-processor/ChibiOS//os/hal/ports/STM32/LLD/USARTv1/serial_lld.h"
 1683              		.file 48 "../../lib/e-puck2_main-processor/ChibiOS//os/hal/include/sdc.h"
 1684              		.file 49 "../../lib/e-puck2_main-processor/ChibiOS//os/hal/ports/STM32/LLD/sdc_lld.h"
 1685              		.file 50 "../../lib/e-puck2_main-processor/ChibiOS//os/hal/include/spi.h"
 1686              		.file 51 "../../lib/e-puck2_main-processor/ChibiOS//os/hal/ports/STM32/LLD/SPIv1/spi_lld.h"
 1687              		.file 52 "../../lib/e-puck2_main-processor/ChibiOS//os/hal/include/usb.h"
 1688              		.file 53 "../../lib/e-puck2_main-processor/ChibiOS//os/hal/ports/STM32/LLD/OTGv1/usb_lld.h"
 1689              		.file 54 "../../lib/e-puck2_main-processor/ChibiOS//os/hal/ports/STM32/LLD/OTGv1/stm32_otg.h"
 1690              		.file 55 "../../lib/e-puck2_main-processor/ChibiOS//os/hal/include/serial_usb.h"
 1691              		.file 56 "c:\\eclipse_e-puck2\\tools\\gcc-arm-none-eabi-7-2017-q4-major-win32\\lib\\gcc\\arm-none-
 1692              		.file 57 "<built-in>"
 1693              		.file 58 "../../lib/e-puck2_main-processor/src/usbcfg.h"
 1694              		.file 59 "c:\\eclipse_e-puck2\\tools\\gcc-arm-none-eabi-7-2017-q4-major-win32\\arm-none-eabi\\incl
 1695              		.file 60 "c:\\eclipse_e-puck2\\tools\\gcc-arm-none-eabi-7-2017-q4-major-win32\\arm-none-eabi\\incl
 1696              		.file 61 "c:\\eclipse_e-puck2\\tools\\gcc-arm-none-eabi-7-2017-q4-major-win32\\arm-none-eabi\\incl
 1697              		.file 62 "../../lib/e-puck2_main-processor/ChibiOS_ext/os/hal/include/../ports/STM32/STM32F4xx/dcm
 1698              		.file 63 "../../lib/e-puck2_main-processor/src/camera/po8030.h"
 1699              		.file 64 "../../lib/e-puck2_main-processor/src/camera/dcmi_camera.h"
 1700              		.file 65 "c:\\eclipse_e-puck2\\tools\\gcc-arm-none-eabi-7-2017-q4-major-win32\\arm-none-eabi\\incl
 1701              		.file 66 "../../lib/e-puck2_main-processor/src/msgbus/messagebus.h"
 1702              		.file 67 "c:\\eclipse_e-puck2\\tools\\gcc-arm-none-eabi-7-2017-q4-major-win32\\arm-none-eabi\\incl
 1703              		.file 68 "../../lib/e-puck2_main-processor/src/parameter/parameter.h"
 1704              		.file 69 "./main.h"
 1705              		.file 70 "../../lib/e-puck2_main-processor/ChibiOS//os/rt/include/chthreads.h"
 1706              		.file 71 "../../lib/e-puck2_main-processor/src/selector.h"